

Microchip MPLAB XC8 Assembler V2.10 build 88905656 
                                                                                               Mon Dec 23 22:55:14 2019

Microchip MPLAB XC8 C Compiler v2.10 (Free license) build 20190730164152 Og1 
     1                           	processor	16F877A
     2                           	opt	pw 120
     3                           	opt	flic
     4                           	psect	strings,global,class=STRING,delta=2
     5                           	psect	cinit,global,class=CODE,merge=1,delta=2
     6                           	psect	cstackBANK1,global,class=BANK1,space=1,delta=1
     7                           	psect	cstackCOMMON,global,class=COMMON,space=1,delta=1
     8                           	psect	cstackBANK0,global,class=BANK0,space=1,delta=1
     9                           	psect	maintext,global,class=CODE,split=1,delta=2
    10                           	psect	text1,local,class=CODE,merge=1,delta=2
    11                           	psect	text2,local,class=CODE,merge=1,delta=2
    12                           	psect	text3,local,class=CODE,merge=1,delta=2,group=1
    13                           	psect	text4,local,class=CODE,merge=1,delta=2,group=1
    14                           	psect	text5,local,class=CODE,merge=1,delta=2,group=2
    15                           	psect	text6,local,class=CODE,merge=1,delta=2
    16                           	psect	text7,local,class=CODE,merge=1,delta=2,group=1
    17                           	psect	text8,local,class=CODE,merge=1,delta=2,group=1
    18                           	psect	text9,local,class=CODE,merge=1,delta=2,group=1
    19                           	psect	text10,local,class=CODE,merge=1,delta=2,group=1
    20                           	psect	text11,local,class=CODE,merge=1,delta=2,group=1
    21                           	psect	text12,local,class=CODE,merge=1,delta=2,group=1
    22                           	psect	text13,local,class=CODE,merge=1,delta=2,group=1
    23                           	psect	text14,local,class=CODE,merge=1,delta=2,group=1
    24                           	psect	text15,local,class=CODE,merge=1,delta=2,group=1
    25                           	psect	text16,local,class=CODE,merge=1,delta=2,group=1
    26                           	psect	text17,local,class=CODE,merge=1,delta=2,group=1
    27                           	psect	text18,local,class=CODE,merge=1,delta=2,group=1
    28                           	psect	text19,local,class=CODE,merge=1,delta=2,group=1
    29                           	psect	text20,local,class=CODE,merge=1,delta=2
    30                           	psect	text21,local,class=CODE,merge=1,delta=2,group=1
    31                           	psect	text22,local,class=CODE,merge=1,delta=2,group=1
    32                           	psect	text23,local,class=CODE,merge=1,delta=2,group=1
    33                           	psect	text24,local,class=CODE,merge=1,delta=2,group=1
    34                           	psect	text25,local,class=CODE,merge=1,delta=2
    35                           	psect	text26,local,class=CODE,merge=1,delta=2
    36                           	psect	text27,local,class=CODE,merge=1,delta=2
    37                           	psect	text28,local,class=CODE,merge=1,delta=2
    38                           	psect	text29,local,class=CODE,merge=1,delta=2
    39                           	psect	text30,local,class=CODE,merge=1,delta=2
    40                           	psect	text31,local,class=CODE,merge=1,delta=2
    41                           	dabs	1,0x7E,2
    42  0000                     
    43                           ; Version 2.10
    44                           ; Generated 31/07/2019 GMT
    45                           ; 
    46                           ; Copyright © 2019, Microchip Technology Inc. and its subsidiaries ("Microchip")
    47                           ; All rights reserved.
    48                           ; 
    49                           ; This software is developed by Microchip Technology Inc. and its subsidiaries ("Microch
      +                          ip").
    50                           ; 
    51                           ; Redistribution and use in source and binary forms, with or without modification, are
    52                           ; permitted provided that the following conditions are met:
    53                           ; 
    54                           ;     1. Redistributions of source code must retain the above copyright notice, this lis
      +                          t of
    55                           ;        conditions and the following disclaimer.
    56                           ; 
    57                           ;     2. Redistributions in binary form must reproduce the above copyright notice, this 
      +                          list
    58                           ;        of conditions and the following disclaimer in the documentation and/or other
    59                           ;        materials provided with the distribution.
    60                           ; 
    61                           ;     3. Microchip's name may not be used to endorse or promote products derived from th
      +                          is
    62                           ;        software without specific prior written permission.
    63                           ; 
    64                           ; THIS SOFTWARE IS PROVIDED BY MICROCHIP "AS IS" AND ANY EXPRESS OR IMPLIED WARRANTIES,
    65                           ; INCLUDING, BUT NOT LIMITED TO, THE IMPLIED WARRANTIES OF MERCHANTABILITY AND FITNESS F
      +                          OR
    66                           ; PURPOSE ARE DISCLAIMED.  IN NO EVENT SHALL MICROCHIP BE LIABLE FOR ANY DIRECT, INDIREC
      +                          T,
    67                           ; INCIDENTAL, SPECIAL, EXEMPLARY, OR CONSEQUENTIAL DAMAGES (INCLUDING BUT NOT LIMITED TO
    68                           ; PROCUREMENT OF SUBSTITUTE GOODS OR SERVICES; LOSS OF USE, DATA OR PROFITS; OR BUSINESS
    69                           ; INTERRUPTION) HOWSOEVER CAUSED AND ON ANY THEORY OF LIABILITY, WHETHER IN CONTRACT, ST
      +                          RICT
    70                           ; LIABILITY, OR TORT (INCLUDING NEGLIGENCE OR OTHERWISE) ARISING IN ANY WAY OUT OF THE U
      +                          SE OF
    71                           ; THIS SOFTWARE, EVEN IF ADVISED OF THE POSSIBILITY OF SUCH DAMAGE.
    72                           ; 
    73                           ; 
    74                           ; Code-generator required, PIC16F877A Definitions
    75                           ; 
    76                           ; SFR Addresses
    77  0000                     	;# 
    78  0001                     	;# 
    79  0002                     	;# 
    80  0003                     	;# 
    81  0004                     	;# 
    82  0005                     	;# 
    83  0006                     	;# 
    84  0007                     	;# 
    85  0008                     	;# 
    86  0009                     	;# 
    87  000A                     	;# 
    88  000B                     	;# 
    89  000C                     	;# 
    90  000D                     	;# 
    91  000E                     	;# 
    92  000E                     	;# 
    93  000F                     	;# 
    94  0010                     	;# 
    95  0011                     	;# 
    96  0012                     	;# 
    97  0013                     	;# 
    98  0014                     	;# 
    99  0015                     	;# 
   100  0015                     	;# 
   101  0016                     	;# 
   102  0017                     	;# 
   103  0018                     	;# 
   104  0019                     	;# 
   105  001A                     	;# 
   106  001B                     	;# 
   107  001B                     	;# 
   108  001C                     	;# 
   109  001D                     	;# 
   110  001E                     	;# 
   111  001F                     	;# 
   112  0081                     	;# 
   113  0085                     	;# 
   114  0086                     	;# 
   115  0087                     	;# 
   116  0088                     	;# 
   117  0089                     	;# 
   118  008C                     	;# 
   119  008D                     	;# 
   120  008E                     	;# 
   121  0091                     	;# 
   122  0092                     	;# 
   123  0093                     	;# 
   124  0094                     	;# 
   125  0098                     	;# 
   126  0099                     	;# 
   127  009C                     	;# 
   128  009D                     	;# 
   129  009E                     	;# 
   130  009F                     	;# 
   131  010C                     	;# 
   132  010D                     	;# 
   133  010E                     	;# 
   134  010F                     	;# 
   135  018C                     	;# 
   136  018D                     	;# 
   137  0000                     	;# 
   138  0001                     	;# 
   139  0002                     	;# 
   140  0003                     	;# 
   141  0004                     	;# 
   142  0005                     	;# 
   143  0006                     	;# 
   144  0007                     	;# 
   145  0008                     	;# 
   146  0009                     	;# 
   147  000A                     	;# 
   148  000B                     	;# 
   149  000C                     	;# 
   150  000D                     	;# 
   151  000E                     	;# 
   152  000E                     	;# 
   153  000F                     	;# 
   154  0010                     	;# 
   155  0011                     	;# 
   156  0012                     	;# 
   157  0013                     	;# 
   158  0014                     	;# 
   159  0015                     	;# 
   160  0015                     	;# 
   161  0016                     	;# 
   162  0017                     	;# 
   163  0018                     	;# 
   164  0019                     	;# 
   165  001A                     	;# 
   166  001B                     	;# 
   167  001B                     	;# 
   168  001C                     	;# 
   169  001D                     	;# 
   170  001E                     	;# 
   171  001F                     	;# 
   172  0081                     	;# 
   173  0085                     	;# 
   174  0086                     	;# 
   175  0087                     	;# 
   176  0088                     	;# 
   177  0089                     	;# 
   178  008C                     	;# 
   179  008D                     	;# 
   180  008E                     	;# 
   181  0091                     	;# 
   182  0092                     	;# 
   183  0093                     	;# 
   184  0094                     	;# 
   185  0098                     	;# 
   186  0099                     	;# 
   187  009C                     	;# 
   188  009D                     	;# 
   189  009E                     	;# 
   190  009F                     	;# 
   191  010C                     	;# 
   192  010D                     	;# 
   193  010E                     	;# 
   194  010F                     	;# 
   195  018C                     	;# 
   196  018D                     	;# 
   197  0000                     	;# 
   198  0001                     	;# 
   199  0002                     	;# 
   200  0003                     	;# 
   201  0004                     	;# 
   202  0005                     	;# 
   203  0006                     	;# 
   204  0007                     	;# 
   205  0008                     	;# 
   206  0009                     	;# 
   207  000A                     	;# 
   208  000B                     	;# 
   209  000C                     	;# 
   210  000D                     	;# 
   211  000E                     	;# 
   212  000E                     	;# 
   213  000F                     	;# 
   214  0010                     	;# 
   215  0011                     	;# 
   216  0012                     	;# 
   217  0013                     	;# 
   218  0014                     	;# 
   219  0015                     	;# 
   220  0015                     	;# 
   221  0016                     	;# 
   222  0017                     	;# 
   223  0018                     	;# 
   224  0019                     	;# 
   225  001A                     	;# 
   226  001B                     	;# 
   227  001B                     	;# 
   228  001C                     	;# 
   229  001D                     	;# 
   230  001E                     	;# 
   231  001F                     	;# 
   232  0081                     	;# 
   233  0085                     	;# 
   234  0086                     	;# 
   235  0087                     	;# 
   236  0088                     	;# 
   237  0089                     	;# 
   238  008C                     	;# 
   239  008D                     	;# 
   240  008E                     	;# 
   241  0091                     	;# 
   242  0092                     	;# 
   243  0093                     	;# 
   244  0094                     	;# 
   245  0098                     	;# 
   246  0099                     	;# 
   247  009C                     	;# 
   248  009D                     	;# 
   249  009E                     	;# 
   250  009F                     	;# 
   251  010C                     	;# 
   252  010D                     	;# 
   253  010E                     	;# 
   254  010F                     	;# 
   255  018C                     	;# 
   256  018D                     	;# 
   257  0000                     	;# 
   258  0001                     	;# 
   259  0002                     	;# 
   260  0003                     	;# 
   261  0004                     	;# 
   262  0005                     	;# 
   263  0006                     	;# 
   264  0007                     	;# 
   265  0008                     	;# 
   266  0009                     	;# 
   267  000A                     	;# 
   268  000B                     	;# 
   269  000C                     	;# 
   270  000D                     	;# 
   271  000E                     	;# 
   272  000E                     	;# 
   273  000F                     	;# 
   274  0010                     	;# 
   275  0011                     	;# 
   276  0012                     	;# 
   277  0013                     	;# 
   278  0014                     	;# 
   279  0015                     	;# 
   280  0015                     	;# 
   281  0016                     	;# 
   282  0017                     	;# 
   283  0018                     	;# 
   284  0019                     	;# 
   285  001A                     	;# 
   286  001B                     	;# 
   287  001B                     	;# 
   288  001C                     	;# 
   289  001D                     	;# 
   290  001E                     	;# 
   291  001F                     	;# 
   292  0081                     	;# 
   293  0085                     	;# 
   294  0086                     	;# 
   295  0087                     	;# 
   296  0088                     	;# 
   297  0089                     	;# 
   298  008C                     	;# 
   299  008D                     	;# 
   300  008E                     	;# 
   301  0091                     	;# 
   302  0092                     	;# 
   303  0093                     	;# 
   304  0094                     	;# 
   305  0098                     	;# 
   306  0099                     	;# 
   307  009C                     	;# 
   308  009D                     	;# 
   309  009E                     	;# 
   310  009F                     	;# 
   311  010C                     	;# 
   312  010D                     	;# 
   313  010E                     	;# 
   314  010F                     	;# 
   315  018C                     	;# 
   316  018D                     	;# 
   317                           
   318                           	psect	strings
   319  0800                     __pstrings:	
   320  0800                     stringtab:	
   321  0800                     __stringtab:	
   322                           
   323                           ;	String table - string pointers are 1 byte each
   324  0800  1BFF               	btfsc	btemp+1,7
   325  0801  280A               	ljmp	stringcode
   326  0802  1383               	bcf	3,7
   327  0803  187F               	btfsc	btemp+1,0
   328  0804  1783               	bsf	3,7
   329  0805  0800               	movf	0,w
   330  0806  0A84               	incf	4,f
   331  0807  1903               	skipnz
   332  0808  0AFF               	incf	btemp+1,f
   333  0809  0008               	return
   334  080A                     stringcode:	
   335  080A                     stringdir:	
   336  080A  3008               	movlw	high stringdir
   337  080B  008A               	movwf	10
   338  080C  0804               	movf	4,w
   339  080D  0A84               	incf	4,f
   340  080E  0782               	addwf	2,f
   341  080F                     __stringbase:	
   342  080F  3400               	retlw	0
   343  0810                     __end_of__stringtab:	
   344  0810                     __powers_:	
   345  0810  3400               	retlw	0
   346  0811  3400               	retlw	0
   347  0812  3480               	retlw	128
   348  0813  343F               	retlw	63
   349  0814  3400               	retlw	0
   350  0815  3400               	retlw	0
   351  0816  3420               	retlw	32
   352  0817  3441               	retlw	65
   353  0818  3400               	retlw	0
   354  0819  3400               	retlw	0
   355  081A  34C8               	retlw	200
   356  081B  3442               	retlw	66
   357  081C  3400               	retlw	0
   358  081D  3400               	retlw	0
   359  081E  347A               	retlw	122
   360  081F  3444               	retlw	68
   361  0820  3400               	retlw	0
   362  0821  3440               	retlw	64
   363  0822  341C               	retlw	28
   364  0823  3446               	retlw	70
   365  0824  3400               	retlw	0
   366  0825  3450               	retlw	80
   367  0826  34C3               	retlw	195
   368  0827  3447               	retlw	71
   369  0828  3400               	retlw	0
   370  0829  3424               	retlw	36
   371  082A  3474               	retlw	116
   372  082B  3449               	retlw	73
   373  082C  3480               	retlw	128
   374  082D  3496               	retlw	150
   375  082E  3418               	retlw	24
   376  082F  344B               	retlw	75
   377  0830  3420               	retlw	32
   378  0831  34BC               	retlw	188
   379  0832  34BE               	retlw	190
   380  0833  344C               	retlw	76
   381  0834  3428               	retlw	40
   382  0835  346B               	retlw	107
   383  0836  346E               	retlw	110
   384  0837  344E               	retlw	78
   385  0838  34F9               	retlw	249
   386  0839  3402               	retlw	2
   387  083A  3415               	retlw	21
   388  083B  3450               	retlw	80
   389  083C  34EC               	retlw	236
   390  083D  3478               	retlw	120
   391  083E  34AD               	retlw	173
   392  083F  3460               	retlw	96
   393  0840  34CA               	retlw	202
   394  0841  34F2               	retlw	242
   395  0842  3449               	retlw	73
   396  0843  3471               	retlw	113
   397  0844                     __end_of__powers_:	
   398  0844                     __npowers_:	
   399  0844  3400               	retlw	0
   400  0845  3400               	retlw	0
   401  0846  3480               	retlw	128
   402  0847  343F               	retlw	63
   403  0848  34CD               	retlw	205
   404  0849  34CC               	retlw	204
   405  084A  34CC               	retlw	204
   406  084B  343D               	retlw	61
   407  084C  340A               	retlw	10
   408  084D  34D7               	retlw	215
   409  084E  3423               	retlw	35
   410  084F  343C               	retlw	60
   411  0850  346F               	retlw	111
   412  0851  3412               	retlw	18
   413  0852  3483               	retlw	131
   414  0853  343A               	retlw	58
   415  0854  3417               	retlw	23
   416  0855  34B7               	retlw	183
   417  0856  34D1               	retlw	209
   418  0857  3438               	retlw	56
   419  0858  34AC               	retlw	172
   420  0859  34C5               	retlw	197
   421  085A  3427               	retlw	39
   422  085B  3437               	retlw	55
   423  085C  34BD               	retlw	189
   424  085D  3437               	retlw	55
   425  085E  3486               	retlw	134
   426  085F  3435               	retlw	53
   427  0860  3495               	retlw	149
   428  0861  34BF               	retlw	191
   429  0862  34D6               	retlw	214
   430  0863  3433               	retlw	51
   431  0864  3477               	retlw	119
   432  0865  34CC               	retlw	204
   433  0866  342B               	retlw	43
   434  0867  3432               	retlw	50
   435  0868  345F               	retlw	95
   436  0869  3470               	retlw	112
   437  086A  3489               	retlw	137
   438  086B  3430               	retlw	48
   439  086C  34FF               	retlw	255
   440  086D  34E6               	retlw	230
   441  086E  34DB               	retlw	219
   442  086F  342E               	retlw	46
   443  0870  3408               	retlw	8
   444  0871  34E5               	retlw	229
   445  0872  343C               	retlw	60
   446  0873  341E               	retlw	30
   447  0874  3460               	retlw	96
   448  0875  3442               	retlw	66
   449  0876  34A2               	retlw	162
   450  0877  340D               	retlw	13
   451  0878                     __end_of__npowers_:	
   452  0878                     _dpowers:	
   453  0878  3401               	retlw	1
   454  0879  3400               	retlw	0
   455  087A  3400               	retlw	0
   456  087B  3400               	retlw	0
   457  087C  340A               	retlw	10
   458  087D  3400               	retlw	0
   459  087E  3400               	retlw	0
   460  087F  3400               	retlw	0
   461  0880  3464               	retlw	100
   462  0881  3400               	retlw	0
   463  0882  3400               	retlw	0
   464  0883  3400               	retlw	0
   465  0884  34E8               	retlw	232
   466  0885  3403               	retlw	3
   467  0886  3400               	retlw	0
   468  0887  3400               	retlw	0
   469  0888  3410               	retlw	16
   470  0889  3427               	retlw	39
   471  088A  3400               	retlw	0
   472  088B  3400               	retlw	0
   473  088C  34A0               	retlw	160
   474  088D  3486               	retlw	134
   475  088E  3401               	retlw	1
   476  088F  3400               	retlw	0
   477  0890  3440               	retlw	64
   478  0891  3442               	retlw	66
   479  0892  340F               	retlw	15
   480  0893  3400               	retlw	0
   481  0894  3480               	retlw	128
   482  0895  3496               	retlw	150
   483  0896  3498               	retlw	152
   484  0897  3400               	retlw	0
   485  0898  3400               	retlw	0
   486  0899  34E1               	retlw	225
   487  089A  34F5               	retlw	245
   488  089B  3405               	retlw	5
   489  089C  3400               	retlw	0
   490  089D  34CA               	retlw	202
   491  089E  349A               	retlw	154
   492  089F  343B               	retlw	59
   493  08A0                     __end_of_dpowers:	
   494  001A                     _RCREG	set	26
   495  0019                     _TXREG	set	25
   496  001E                     _ADRESH	set	30
   497  001F                     _ADCON0bits	set	31
   498  0006                     _PORTB	set	6
   499  0065                     _RCIF	set	101
   500  00C1                     _OERR	set	193
   501  0064                     _TXIF	set	100
   502  005E                     _PEIE	set	94
   503  005F                     _GIE	set	95
   504  00C4                     _CREN	set	196
   505  00C6                     _RX9	set	198
   506  00C7                     _SPEN	set	199
   507  0099                     _SPBRG	set	153
   508  009E                     _ADRESL	set	158
   509  009F                     _ADCON1bits	set	159
   510  0088                     _TRISD	set	136
   511  0086                     _TRISB	set	134
   512  0085                     _TRISA	set	133
   513  04C1                     _TRMT	set	1217
   514  0464                     _TXIE	set	1124
   515  0465                     _RCIE	set	1125
   516  04C5                     _TXEN	set	1221
   517  04C6                     _TX9	set	1222
   518  04C4                     _SYNC	set	1220
   519  04C2                     _BRGH	set	1218
   520  043F                     _TRISC7	set	1087
   521  043E                     _TRISC6	set	1086
   522  08A0                     STR_1:	
   523  08A0  3442               	retlw	66	;'B'
   524  08A1  346C               	retlw	108	;'l'
   525  08A2  3475               	retlw	117	;'u'
   526  08A3  3465               	retlw	101	;'e'
   527  08A4  3474               	retlw	116	;'t'
   528  08A5  346F               	retlw	111	;'o'
   529  08A6  346F               	retlw	111	;'o'
   530  08A7  3474               	retlw	116	;'t'
   531  08A8  3468               	retlw	104	;'h'
   532  08A9  3420               	retlw	32	;' '
   533  08AA  3449               	retlw	73	;'I'
   534  08AB  346E               	retlw	110	;'n'
   535  08AC  3469               	retlw	105	;'i'
   536  08AD  3474               	retlw	116	;'t'
   537  08AE  3469               	retlw	105	;'i'
   538  08AF  3461               	retlw	97	;'a'
   539  08B0  346C               	retlw	108	;'l'
   540  08B1  3469               	retlw	105	;'i'
   541  08B2  347A               	retlw	122	;'z'
   542  08B3  3465               	retlw	101	;'e'
   543  08B4  3464               	retlw	100	;'d'
   544  08B5  3420               	retlw	32	;' '
   545  08B6  3461               	retlw	97	;'a'
   546  08B7  346E               	retlw	110	;'n'
   547  08B8  3464               	retlw	100	;'d'
   548  08B9  3420               	retlw	32	;' '
   549  08BA  3452               	retlw	82	;'R'
   550  08BB  3465               	retlw	101	;'e'
   551  08BC  3461               	retlw	97	;'a'
   552  08BD  3464               	retlw	100	;'d'
   553  08BE  3479               	retlw	121	;'y'
   554  08BF  3400               	retlw	0
   555  08C0                     STR_2:	
   556  08C0  3425               	retlw	37	;'%'
   557  08C1  342E               	retlw	46	;'.'
   558  08C2  3432               	retlw	50	;'2'
   559  08C3  3466               	retlw	102	;'f'
   560  08C4  3400               	retlw	0
   561                           
   562                           ; #config settings
   563  0000                     
   564                           	psect	cinit
   565  07FC                     start_initialization:	
   566  07FC                     __initialization:	
   567  07FC                     end_of_initialization:	
   568                           ;End of C runtime variable initialization code
   569                           
   570  07FC                     __end_of__initialization:	
   571  07FC  0183               	clrf	3
   572  07FD  120A  118A  288B   	ljmp	_main	;jump to C main() function
   573                           
   574                           	psect	cstackBANK1
   575  00A0                     __pcstackBANK1:	
   576  00A0                     ?___flsub:	
   577  00A0                     ___flsub@a:	
   578                           ; 4 bytes @ 0x0
   579                           
   580                           
   581                           ; 4 bytes @ 0x0
   582  00A0                     	ds	4
   583  00A4                     ___flsub@b:	
   584                           
   585                           ; 4 bytes @ 0x4
   586  00A4                     	ds	4
   587  00A8                     ?_sprintf:	
   588  00A8                     sprintf@f:	
   589                           ; 2 bytes @ 0x8
   590                           
   591                           
   592                           ; 1 bytes @ 0x8
   593  00A8                     	ds	5
   594  00AD                     ??_sprintf:	
   595                           
   596                           ; 1 bytes @ 0xD
   597  00AD                     	ds	5
   598  00B2                     _sprintf$918:	
   599                           
   600                           ; 4 bytes @ 0x12
   601  00B2                     	ds	4
   602  00B6                     sprintf@ap:	
   603                           
   604                           ; 1 bytes @ 0x16
   605  00B6                     	ds	1
   606  00B7                     sprintf@flag:	
   607                           
   608                           ; 2 bytes @ 0x17
   609  00B7                     	ds	2
   610  00B9                     sprintf@val:	
   611                           
   612                           ; 4 bytes @ 0x19
   613  00B9                     	ds	4
   614  00BD                     sprintf@eexp:	
   615                           
   616                           ; 2 bytes @ 0x1D
   617  00BD                     	ds	2
   618  00BF                     sprintf@tmpval:	
   619                           
   620                           ; 4 bytes @ 0x1F
   621  00BF                     	ds	4
   622  00C3                     sprintf@sp:	
   623                           
   624                           ; 1 bytes @ 0x23
   625  00C3                     	ds	1
   626  00C4                     sprintf@prec:	
   627                           
   628                           ; 2 bytes @ 0x24
   629  00C4                     	ds	2
   630  00C6                     sprintf@fval:	
   631                           
   632                           ; 4 bytes @ 0x26
   633  00C6                     	ds	4
   634  00CA                     sprintf@c:	
   635                           
   636                           ; 1 bytes @ 0x2A
   637  00CA                     	ds	1
   638  00CB                     ??_main:	
   639                           
   640                           ; 1 bytes @ 0x2B
   641  00CB                     	ds	3
   642  00CE                     main@mess:	
   643                           
   644                           ; 20 bytes @ 0x2E
   645  00CE                     	ds	22
   646  00E4                     main@LED_mode:	
   647                           
   648                           ; 2 bytes @ 0x44
   649  00E4                     	ds	2
   650  00E6                     main@send_mode:	
   651                           
   652                           ; 2 bytes @ 0x46
   653  00E6                     	ds	2
   654  00E8                     main@data:	
   655                           
   656                           ; 4 bytes @ 0x48
   657  00E8                     	ds	4
   658  00EC                     main@time:	
   659                           
   660                           ; 2 bytes @ 0x4C
   661  00EC                     	ds	2
   662  00EE                     main@blt_mess:	
   663                           
   664                           ; 2 bytes @ 0x4E
   665  00EE                     	ds	2
   666                           
   667                           	psect	cstackCOMMON
   668  0070                     __pcstackCOMMON:	
   669  0070                     ?_isdigit:	
   670  0070                     ?___fleq:	
   671                           ; 1 bit 
   672                           
   673  0070                     ?___flge:	
   674                           ; 1 bit 
   675                           
   676  0070                     ?_Init_ADC:	
   677                           ; 1 bit 
   678                           
   679  0070                     ??_Init_ADC:	
   680                           ; 1 bytes @ 0x0
   681                           
   682  0070                     ?_Initialize_Bluetooth:	
   683                           ; 1 bytes @ 0x0
   684                           
   685  0070                     ??_Initialize_Bluetooth:	
   686                           ; 1 bytes @ 0x0
   687                           
   688  0070                     ?_broadcast_BT:	
   689                           ; 1 bytes @ 0x0
   690                           
   691  0070                     ??_broadcast_BT:	
   692                           ; 1 bytes @ 0x0
   693                           
   694  0070                     ?_BT_get_char:	
   695                           ; 1 bytes @ 0x0
   696                           
   697  0070                     ??_BT_get_char:	
   698                           ; 1 bytes @ 0x0
   699                           
   700  0070                     ??_isdigit:	
   701                           ; 1 bytes @ 0x0
   702                           
   703  0070                     ?_Pin_Init:	
   704                           ; 1 bytes @ 0x0
   705                           
   706  0070                     ??_Pin_Init:	
   707                           ; 1 bytes @ 0x0
   708                           
   709  0070                     ?_main:	
   710                           ; 1 bytes @ 0x0
   711                           
   712  0070                     ?_BT_load_char:	
   713                           ; 1 bytes @ 0x0
   714                           
   715  0070                     ??_BT_load_char:	
   716                           ; 1 bytes @ 0x0
   717                           
   718  0070                     ?__Umul8_16:	
   719                           ; 1 bytes @ 0x0
   720                           
   721  0070                     ?___wmul:	
   722                           ; 2 bytes @ 0x0
   723                           
   724  0070                     ?___awmod:	
   725                           ; 2 bytes @ 0x0
   726                           
   727  0070                     ?___lwmod:	
   728                           ; 2 bytes @ 0x0
   729                           
   730  0070                     ?__tdiv_to_l_:	
   731                           ; 2 bytes @ 0x0
   732                           
   733  0070                     ?__div_to_l_:	
   734                           ; 4 bytes @ 0x0
   735                           
   736  0070                     ?___lldiv:	
   737                           ; 4 bytes @ 0x0
   738                           
   739  0070                     ?___flneg:	
   740                           ; 4 bytes @ 0x0
   741                           
   742  0070                     ?___llmod:	
   743                           ; 4 bytes @ 0x0
   744                           
   745  0070                     ?___fldiv:	
   746                           ; 4 bytes @ 0x0
   747                           
   748  0070                     ?___xxtofl:	
   749                           ; 4 bytes @ 0x0
   750                           
   751  0070                     BT_load_char@byte:	
   752                           ; 4 bytes @ 0x0
   753                           
   754  0070                     _isdigit$737:	
   755                           ; 1 bytes @ 0x0
   756                           
   757  0070                     __Umul8_16@multiplicand:	
   758                           ; 1 bytes @ 0x0
   759                           
   760  0070                     ___wmul@multiplier:	
   761                           ; 1 bytes @ 0x0
   762                           
   763  0070                     ___awmod@divisor:	
   764                           ; 2 bytes @ 0x0
   765                           
   766  0070                     ___lwmod@divisor:	
   767                           ; 2 bytes @ 0x0
   768                           
   769  0070                     ___lldiv@divisor:	
   770                           ; 2 bytes @ 0x0
   771                           
   772  0070                     __div_to_l_@f1:	
   773                           ; 4 bytes @ 0x0
   774                           
   775  0070                     ___fleq@ff1:	
   776                           ; 4 bytes @ 0x0
   777                           
   778  0070                     ___flge@ff1:	
   779                           ; 4 bytes @ 0x0
   780                           
   781  0070                     ___flneg@f1:	
   782                           ; 4 bytes @ 0x0
   783                           
   784  0070                     __tdiv_to_l_@f1:	
   785                           ; 4 bytes @ 0x0
   786                           
   787  0070                     ___llmod@divisor:	
   788                           ; 4 bytes @ 0x0
   789                           
   790  0070                     ___fldiv@a:	
   791                           ; 4 bytes @ 0x0
   792                           
   793  0070                     ___xxtofl@val:	
   794                           ; 4 bytes @ 0x0
   795                           
   796                           
   797                           ; 4 bytes @ 0x0
   798  0070                     	ds	1
   799  0071                     ?_BT_load_string:	
   800  0071                     isdigit@c:	
   801                           ; 1 bytes @ 0x1
   802                           
   803  0071                     BT_load_string@string:	
   804                           ; 1 bytes @ 0x1
   805                           
   806                           
   807                           ; 2 bytes @ 0x1
   808  0071                     	ds	1
   809  0072                     ??__Umul8_16:	
   810  0072                     ___wmul@multiplicand:	
   811                           ; 1 bytes @ 0x2
   812                           
   813  0072                     ___awmod@dividend:	
   814                           ; 2 bytes @ 0x2
   815                           
   816  0072                     ___lwmod@dividend:	
   817                           ; 2 bytes @ 0x2
   818                           
   819                           
   820                           ; 2 bytes @ 0x2
   821  0072                     	ds	1
   822  0073                     ??_BT_load_string:	
   823                           
   824                           ; 1 bytes @ 0x3
   825  0073                     	ds	1
   826  0074                     ??___wmul:	
   827  0074                     ??___awmod:	
   828                           ; 1 bytes @ 0x4
   829                           
   830  0074                     ??___flneg:	
   831                           ; 1 bytes @ 0x4
   832                           
   833  0074                     ??___lwmod:	
   834                           ; 1 bytes @ 0x4
   835                           
   836  0074                     ??___xxtofl:	
   837                           ; 1 bytes @ 0x4
   838                           
   839  0074                     ___wmul@product:	
   840                           ; 1 bytes @ 0x4
   841                           
   842  0074                     __Umul8_16@product:	
   843                           ; 2 bytes @ 0x4
   844                           
   845  0074                     ___lldiv@dividend:	
   846                           ; 2 bytes @ 0x4
   847                           
   848  0074                     __div_to_l_@f2:	
   849                           ; 4 bytes @ 0x4
   850                           
   851  0074                     ___fleq@ff2:	
   852                           ; 4 bytes @ 0x4
   853                           
   854  0074                     ___flge@ff2:	
   855                           ; 4 bytes @ 0x4
   856                           
   857  0074                     __tdiv_to_l_@f2:	
   858                           ; 4 bytes @ 0x4
   859                           
   860  0074                     ___llmod@dividend:	
   861                           ; 4 bytes @ 0x4
   862                           
   863  0074                     ___fldiv@b:	
   864                           ; 4 bytes @ 0x4
   865                           
   866                           
   867                           ; 4 bytes @ 0x4
   868  0074                     	ds	1
   869  0075                     ___awmod@counter:	
   870  0075                     ___lwmod@counter:	
   871                           ; 1 bytes @ 0x5
   872                           
   873                           
   874                           ; 1 bytes @ 0x5
   875  0075                     	ds	1
   876  0076                     ?___lwdiv:	
   877  0076                     ___awmod@sign:	
   878                           ; 2 bytes @ 0x6
   879                           
   880  0076                     ___lwdiv@divisor:	
   881                           ; 1 bytes @ 0x6
   882                           
   883  0076                     __Umul8_16@word_mpld:	
   884                           ; 2 bytes @ 0x6
   885                           
   886                           
   887                           ; 2 bytes @ 0x6
   888  0076                     	ds	1
   889  0077                     ?___awdiv:	
   890  0077                     ___awdiv@divisor:	
   891                           ; 2 bytes @ 0x7
   892                           
   893                           
   894                           ; 2 bytes @ 0x7
   895  0077                     	ds	1
   896  0078                     ??__tdiv_to_l_:	
   897  0078                     ??__div_to_l_:	
   898                           ; 1 bytes @ 0x8
   899                           
   900  0078                     ??___lldiv:	
   901                           ; 1 bytes @ 0x8
   902                           
   903  0078                     ??___fleq:	
   904                           ; 1 bytes @ 0x8
   905                           
   906  0078                     ??___flge:	
   907                           ; 1 bytes @ 0x8
   908                           
   909  0078                     ??___llmod:	
   910                           ; 1 bytes @ 0x8
   911                           
   912  0078                     ??___fldiv:	
   913                           ; 1 bytes @ 0x8
   914                           
   915  0078                     ___xxtofl@sign:	
   916                           ; 1 bytes @ 0x8
   917                           
   918  0078                     __Umul8_16@multiplier:	
   919                           ; 1 bytes @ 0x8
   920                           
   921  0078                     ___lwdiv@dividend:	
   922                           ; 1 bytes @ 0x8
   923                           
   924                           
   925                           ; 2 bytes @ 0x8
   926  0078                     	ds	1
   927  0079                     ___llmod@counter:	
   928  0079                     ___xxtofl@exp:	
   929                           ; 1 bytes @ 0x9
   930                           
   931  0079                     ___awdiv@dividend:	
   932                           ; 1 bytes @ 0x9
   933                           
   934  0079                     ___lldiv@quotient:	
   935                           ; 2 bytes @ 0x9
   936                           
   937                           
   938                           ; 4 bytes @ 0x9
   939  0079                     	ds	1
   940  007A                     ??___lwdiv:	
   941  007A                     ___xxtofl@arg:	
   942                           ; 1 bytes @ 0xA
   943                           
   944                           
   945                           ; 4 bytes @ 0xA
   946  007A                     	ds	1
   947  007B                     ??___awdiv:	
   948  007B                     ___lwdiv@quotient:	
   949                           ; 1 bytes @ 0xB
   950                           
   951                           
   952                           ; 2 bytes @ 0xB
   953  007B                     	ds	2
   954  007D                     ___lldiv@counter:	
   955  007D                     ___lwdiv@counter:	
   956                           ; 1 bytes @ 0xD
   957                           
   958                           
   959                           ; 1 bytes @ 0xD
   960  007D                     	ds	1
   961  007E                     ??___flsub:	
   962                           
   963                           	psect	cstackBANK0
   964  0020                     __pcstackBANK0:	
   965                           ; 1 bytes @ 0xE
   966                           
   967  0020                     ___awdiv@counter:	
   968  0020                     __div_to_l_@quot:	
   969                           ; 1 bytes @ 0x0
   970                           
   971  0020                     __tdiv_to_l_@quot:	
   972                           ; 4 bytes @ 0x0
   973                           
   974  0020                     ___fldiv@rem:	
   975                           ; 4 bytes @ 0x0
   976                           
   977                           
   978                           ; 4 bytes @ 0x0
   979  0020                     	ds	1
   980  0021                     ___awdiv@sign:	
   981                           
   982                           ; 1 bytes @ 0x1
   983  0021                     	ds	1
   984  0022                     ___awdiv@quotient:	
   985                           
   986                           ; 2 bytes @ 0x2
   987  0022                     	ds	2
   988  0024                     __div_to_l_@cntr:	
   989  0024                     __tdiv_to_l_@cntr:	
   990                           ; 1 bytes @ 0x4
   991                           
   992  0024                     ___fldiv@sign:	
   993                           ; 1 bytes @ 0x4
   994                           
   995                           
   996                           ; 1 bytes @ 0x4
   997  0024                     	ds	1
   998  0025                     __div_to_l_@exp1:	
   999  0025                     __tdiv_to_l_@exp1:	
  1000                           ; 1 bytes @ 0x5
  1001                           
  1002  0025                     ___fldiv@new_exp:	
  1003                           ; 1 bytes @ 0x5
  1004                           
  1005                           
  1006                           ; 2 bytes @ 0x5
  1007  0025                     	ds	2
  1008  0027                     ___fldiv@grs:	
  1009                           
  1010                           ; 4 bytes @ 0x7
  1011  0027                     	ds	4
  1012  002B                     ___fldiv@bexp:	
  1013                           
  1014                           ; 1 bytes @ 0xB
  1015  002B                     	ds	1
  1016  002C                     ___fldiv@aexp:	
  1017                           
  1018                           ; 1 bytes @ 0xC
  1019  002C                     	ds	1
  1020  002D                     ?___flmul:	
  1021  002D                     ___flmul@b:	
  1022                           ; 4 bytes @ 0xD
  1023                           
  1024                           
  1025                           ; 4 bytes @ 0xD
  1026  002D                     	ds	4
  1027  0031                     ___flmul@a:	
  1028                           
  1029                           ; 4 bytes @ 0x11
  1030  0031                     	ds	4
  1031  0035                     ??___flmul:	
  1032                           
  1033                           ; 1 bytes @ 0x15
  1034  0035                     	ds	5
  1035  003A                     ___flmul@sign:	
  1036                           
  1037                           ; 1 bytes @ 0x1A
  1038  003A                     	ds	1
  1039  003B                     ___flmul@grs:	
  1040                           
  1041                           ; 4 bytes @ 0x1B
  1042  003B                     	ds	4
  1043  003F                     ___flmul@aexp:	
  1044                           
  1045                           ; 1 bytes @ 0x1F
  1046  003F                     	ds	1
  1047  0040                     ___flmul@bexp:	
  1048                           
  1049                           ; 1 bytes @ 0x20
  1050  0040                     	ds	1
  1051  0041                     ___flmul@prod:	
  1052                           
  1053                           ; 4 bytes @ 0x21
  1054  0041                     	ds	4
  1055  0045                     ___flmul@temp:	
  1056                           
  1057                           ; 2 bytes @ 0x25
  1058  0045                     	ds	2
  1059  0047                     ?_read_ADC:	
  1060  0047                     ?_fround:	
  1061                           ; 4 bytes @ 0x27
  1062                           
  1063  0047                     ?_scale:	
  1064                           ; 4 bytes @ 0x27
  1065                           
  1066                           
  1067                           ; 4 bytes @ 0x27
  1068  0047                     	ds	4
  1069  004B                     ??_read_ADC:	
  1070  004B                     ??_fround:	
  1071                           ; 1 bytes @ 0x2B
  1072                           
  1073  004B                     ??_scale:	
  1074                           ; 1 bytes @ 0x2B
  1075                           
  1076                           
  1077                           ; 1 bytes @ 0x2B
  1078  004B                     	ds	2
  1079  004D                     read_ADC@data:	
  1080                           
  1081                           ; 4 bytes @ 0x2D
  1082  004D                     	ds	5
  1083  0052                     _fround$916:	
  1084                           
  1085                           ; 4 bytes @ 0x32
  1086  0052                     	ds	3
  1087  0055                     _scale$917:	
  1088                           
  1089                           ; 4 bytes @ 0x35
  1090  0055                     	ds	1
  1091  0056                     _fround$915:	
  1092                           
  1093                           ; 4 bytes @ 0x36
  1094  0056                     	ds	3
  1095  0059                     scale@scl:	
  1096                           
  1097                           ; 1 bytes @ 0x39
  1098  0059                     	ds	1
  1099  005A                     ?___fltol:	
  1100  005A                     fround@prec:	
  1101                           ; 4 bytes @ 0x3A
  1102                           
  1103  005A                     ___fltol@f1:	
  1104                           ; 1 bytes @ 0x3A
  1105                           
  1106                           
  1107                           ; 4 bytes @ 0x3A
  1108  005A                     	ds	1
  1109  005B                     ?___fladd:	
  1110  005B                     ___fladd@b:	
  1111                           ; 4 bytes @ 0x3B
  1112                           
  1113                           
  1114                           ; 4 bytes @ 0x3B
  1115  005B                     	ds	3
  1116  005E                     ??___fltol:	
  1117                           
  1118                           ; 1 bytes @ 0x3E
  1119  005E                     	ds	1
  1120  005F                     ___fladd@a:	
  1121                           
  1122                           ; 4 bytes @ 0x3F
  1123  005F                     	ds	4
  1124  0063                     ??___fladd:	
  1125  0063                     ___fltol@sign1:	
  1126                           ; 1 bytes @ 0x43
  1127                           
  1128                           
  1129                           ; 1 bytes @ 0x43
  1130  0063                     	ds	1
  1131  0064                     ___fltol@exp1:	
  1132                           
  1133                           ; 1 bytes @ 0x44
  1134  0064                     	ds	7
  1135  006B                     ___fladd@signs:	
  1136                           
  1137                           ; 1 bytes @ 0x4B
  1138  006B                     	ds	1
  1139  006C                     ___fladd@aexp:	
  1140                           
  1141                           ; 1 bytes @ 0x4C
  1142  006C                     	ds	1
  1143  006D                     ___fladd@bexp:	
  1144                           
  1145                           ; 1 bytes @ 0x4D
  1146  006D                     	ds	1
  1147  006E                     ___fladd@grs:	
  1148                           
  1149                           ; 1 bytes @ 0x4E
  1150  006E                     	ds	1
  1151                           
  1152                           	psect	maintext
  1153  008B                     __pmaintext:	
  1154 ;;
  1155 ;;Main: autosize = 0, tempsize = 3, incstack = 0, save=0
  1156 ;;
  1157 ;; *************** function _main *****************
  1158 ;; Defined at:
  1159 ;;		line 34 in file "main.c"
  1160 ;; Parameters:    Size  Location     Type
  1161 ;;		None
  1162 ;; Auto vars:     Size  Location     Type
  1163 ;;  mess           20   46[BANK1 ] unsigned char [20]
  1164 ;;  data            4   72[BANK1 ] float 
  1165 ;;  blt_mess        2   78[BANK1 ] int 
  1166 ;;  time            2   76[BANK1 ] int 
  1167 ;;  send_mode       2   70[BANK1 ] unsigned int 
  1168 ;;  LED_mode        2   68[BANK1 ] unsigned int 
  1169 ;;  i               2    0        int 
  1170 ;; Return value:  Size  Location     Type
  1171 ;;                  1    wreg      void 
  1172 ;; Registers used:
  1173 ;;		wreg, fsr0l, fsr0h, status,2, status,0, btemp+1, pclath, cstack
  1174 ;; Tracked objects:
  1175 ;;		On entry : B00/0
  1176 ;;		On exit  : 0/0
  1177 ;;		Unchanged: 0/0
  1178 ;; Data sizes:     COMMON   BANK0   BANK1   BANK3   BANK2
  1179 ;;      Params:         0       0       0       0       0
  1180 ;;      Locals:         0       0      34       0       0
  1181 ;;      Temps:          0       0       3       0       0
  1182 ;;      Totals:         0       0      37       0       0
  1183 ;;Total ram usage:       37 bytes
  1184 ;; Hardware stack levels required when called:    4
  1185 ;; This function calls:
  1186 ;;		_BT_get_char
  1187 ;;		_BT_load_string
  1188 ;;		_Init_ADC
  1189 ;;		_Initialize_Bluetooth
  1190 ;;		_Pin_Init
  1191 ;;		___flge
  1192 ;;		_broadcast_BT
  1193 ;;		_read_ADC
  1194 ;;		_sprintf
  1195 ;; This function is called by:
  1196 ;;		Startup code after reset
  1197 ;; This function uses a non-reentrant model
  1198 ;;
  1199                           
  1200                           
  1201                           ;psect for function _main
  1202  008B                     _main:	
  1203  008B                     l3533:	
  1204                           ;incstack = 0
  1205                           ; Regs used in _main: [wreg-fsr0h+status,2+status,0+btemp+1+pclath+cstack]
  1206                           
  1207                           
  1208                           ;main.c: 35:     Pin_Init();
  1209  008B  160A  158A  237E  120A  118A  	fcall	_Pin_Init
  1210  0090                     l3535:	
  1211                           
  1212                           ;main.c: 36:     Init_ADC();
  1213  0090  160A  158A  234C  120A  118A  	fcall	_Init_ADC
  1214  0095                     l3537:	
  1215                           
  1216                           ;main.c: 37:     Initialize_Bluetooth();
  1217  0095  160A  158A  2364  120A  118A  	fcall	_Initialize_Bluetooth
  1218  009A                     l3539:	
  1219  009A                     l3541:	
  1220                           
  1221                           ;main.c: 40:     BT_load_string("Bluetooth Initialized and Ready");
  1222  009A  3091               	movlw	(low ((STR_1-__stringbase)| (0+32768)))& (0+255)
  1223  009B  00F1               	movwf	BT_load_string@string
  1224  009C  3080               	movlw	128
  1225  009D  00F2               	movwf	BT_load_string@string+1
  1226  009E  160A  158A  23C0  120A  118A  	fcall	_BT_load_string
  1227  00A3                     l3543:	
  1228                           
  1229                           ;main.c: 41:     broadcast_BT();
  1230  00A3  160A  118A  200A  120A  118A  	fcall	_broadcast_BT
  1231  00A8                     l3545:	
  1232  00A8                     l3547:	
  1233                           
  1234                           ;main.c: 45:     unsigned int LED_mode = 1;
  1235  00A8  3001               	movlw	1
  1236  00A9  1683               	bsf	3,5	;RP0=1, select bank1
  1237  00AA  1303               	bcf	3,6	;RP1=0, select bank1
  1238  00AB  00E4               	movwf	main@LED_mode^(0+128)
  1239  00AC  3000               	movlw	0
  1240  00AD  00E5               	movwf	(main@LED_mode^(0+128)+1)
  1241  00AE                     l3549:	
  1242                           
  1243                           ;main.c: 46:     unsigned int send_mode = 1;
  1244  00AE  3001               	movlw	1
  1245  00AF  00E6               	movwf	main@send_mode^(0+128)
  1246  00B0  3000               	movlw	0
  1247  00B1  00E7               	movwf	(main@send_mode^(0+128)+1)
  1248  00B2                     l3551:	
  1249                           
  1250                           ;main.c: 47:     int time = 0;
  1251  00B2  01EC               	clrf	main@time^(0+128)
  1252  00B3  01ED               	clrf	(main@time+1)^(0+128)
  1253  00B4                     l3553:	
  1254  00B4                     l3555:	
  1255                           
  1256                           ;main.c: 50:     {;main.c: 51:         blt_mess = BT_get_char();
  1257  00B4  160A  158A  2338  120A  118A  	fcall	_BT_get_char
  1258  00B9  1683               	bsf	3,5	;RP0=1, select bank1
  1259  00BA  1303               	bcf	3,6	;RP1=0, select bank1
  1260  00BB  00CB               	movwf	??_main^(0+128)
  1261  00BC  01CC               	clrf	(??_main^(0+128)+1)
  1262  00BD  084B               	movf	??_main^(0+128),w
  1263  00BE  00EE               	movwf	main@blt_mess^(0+128)
  1264  00BF  084C               	movf	(??_main+1)^(0+128),w
  1265  00C0  00EF               	movwf	(main@blt_mess+1)^(0+128)
  1266  00C1                     l3557:	
  1267                           
  1268                           ;main.c: 54:         if( blt_mess == '0' ) PORTB = 0;
  1269  00C1  3030               	movlw	48
  1270  00C2  066E               	xorwf	main@blt_mess^(0+128),w
  1271  00C3  046F               	iorwf	(main@blt_mess+1)^(0+128),w
  1272  00C4  1D03               	btfss	3,2
  1273  00C5  28C7               	goto	u6021
  1274  00C6  28C8               	goto	u6020
  1275  00C7                     u6021:	
  1276  00C7  28CB               	goto	l3561
  1277  00C8                     u6020:	
  1278  00C8                     l3559:	
  1279  00C8  1283               	bcf	3,5	;RP0=0, select bank0
  1280  00C9  1303               	bcf	3,6	;RP1=0, select bank0
  1281  00CA  0186               	clrf	6	;volatile
  1282  00CB                     l3561:	
  1283                           
  1284                           ;main.c: 55:         if( blt_mess == '1' ) PORTB = 0xFF;
  1285  00CB  3031               	movlw	49
  1286  00CC  1683               	bsf	3,5	;RP0=1, select bank1
  1287  00CD  1303               	bcf	3,6	;RP1=0, select bank1
  1288  00CE  066E               	xorwf	main@blt_mess^(0+128),w
  1289  00CF  046F               	iorwf	(main@blt_mess+1)^(0+128),w
  1290  00D0  1D03               	btfss	3,2
  1291  00D1  28D3               	goto	u6031
  1292  00D2  28D4               	goto	u6030
  1293  00D3                     u6031:	
  1294  00D3  28D8               	goto	l3565
  1295  00D4                     u6030:	
  1296  00D4                     l3563:	
  1297  00D4  30FF               	movlw	255
  1298  00D5  1283               	bcf	3,5	;RP0=0, select bank0
  1299  00D6  1303               	bcf	3,6	;RP1=0, select bank0
  1300  00D7  0086               	movwf	6	;volatile
  1301  00D8                     l3565:	
  1302                           
  1303                           ;main.c: 57:         if( blt_mess == '2' ) LED_mode= 0;
  1304  00D8  3032               	movlw	50
  1305  00D9  1683               	bsf	3,5	;RP0=1, select bank1
  1306  00DA  1303               	bcf	3,6	;RP1=0, select bank1
  1307  00DB  066E               	xorwf	main@blt_mess^(0+128),w
  1308  00DC  046F               	iorwf	(main@blt_mess+1)^(0+128),w
  1309  00DD  1D03               	btfss	3,2
  1310  00DE  28E0               	goto	u6041
  1311  00DF  28E1               	goto	u6040
  1312  00E0                     u6041:	
  1313  00E0  28E3               	goto	l3569
  1314  00E1                     u6040:	
  1315  00E1                     l3567:	
  1316  00E1  01E4               	clrf	main@LED_mode^(0+128)
  1317  00E2  01E5               	clrf	(main@LED_mode+1)^(0+128)
  1318  00E3                     l3569:	
  1319                           
  1320                           ;main.c: 58:         if( blt_mess == '3' ) LED_mode = 1;
  1321  00E3  3033               	movlw	51
  1322  00E4  066E               	xorwf	main@blt_mess^(0+128),w
  1323  00E5  046F               	iorwf	(main@blt_mess+1)^(0+128),w
  1324  00E6  1D03               	btfss	3,2
  1325  00E7  28E9               	goto	u6051
  1326  00E8  28EA               	goto	u6050
  1327  00E9                     u6051:	
  1328  00E9  28EE               	goto	l3573
  1329  00EA                     u6050:	
  1330  00EA                     l3571:	
  1331  00EA  3001               	movlw	1
  1332  00EB  00E4               	movwf	main@LED_mode^(0+128)
  1333  00EC  3000               	movlw	0
  1334  00ED  00E5               	movwf	(main@LED_mode^(0+128)+1)
  1335  00EE                     l3573:	
  1336                           
  1337                           ;main.c: 60:  if( blt_mess == '4' ) send_mode= 0;
  1338  00EE  3034               	movlw	52
  1339  00EF  066E               	xorwf	main@blt_mess^(0+128),w
  1340  00F0  046F               	iorwf	(main@blt_mess+1)^(0+128),w
  1341  00F1  1D03               	btfss	3,2
  1342  00F2  28F4               	goto	u6061
  1343  00F3  28F5               	goto	u6060
  1344  00F4                     u6061:	
  1345  00F4  28F7               	goto	l3577
  1346  00F5                     u6060:	
  1347  00F5                     l3575:	
  1348  00F5  01E6               	clrf	main@send_mode^(0+128)
  1349  00F6  01E7               	clrf	(main@send_mode+1)^(0+128)
  1350  00F7                     l3577:	
  1351                           
  1352                           ;main.c: 61:         if( blt_mess == '5' ) send_mode = 1;
  1353  00F7  3035               	movlw	53
  1354  00F8  066E               	xorwf	main@blt_mess^(0+128),w
  1355  00F9  046F               	iorwf	(main@blt_mess+1)^(0+128),w
  1356  00FA  1D03               	btfss	3,2
  1357  00FB  28FD               	goto	u6071
  1358  00FC  28FE               	goto	u6070
  1359  00FD                     u6071:	
  1360  00FD  2902               	goto	l3581
  1361  00FE                     u6070:	
  1362  00FE                     l3579:	
  1363  00FE  3001               	movlw	1
  1364  00FF  00E6               	movwf	main@send_mode^(0+128)
  1365  0100  3000               	movlw	0
  1366  0101  00E7               	movwf	(main@send_mode^(0+128)+1)
  1367  0102                     l3581:	
  1368                           
  1369                           ;main.c: 63:        if(ADCON0bits.GO_DONE == 0 )
  1370  0102  1283               	bcf	3,5	;RP0=0, select bank0
  1371  0103  1303               	bcf	3,6	;RP1=0, select bank0
  1372  0104  191F               	btfsc	31,2	;volatile
  1373  0105  2907               	goto	u6081
  1374  0106  2908               	goto	u6080
  1375  0107                     u6081:	
  1376  0107  28B4               	goto	l3555
  1377  0108                     u6080:	
  1378  0108                     l3583:	
  1379                           
  1380                           ;main.c: 64:         {;main.c: 65:            if(time > 25 )
  1381  0108  1683               	bsf	3,5	;RP0=1, select bank1
  1382  0109  1303               	bcf	3,6	;RP1=0, select bank1
  1383  010A  086D               	movf	(main@time+1)^(0+128),w
  1384  010B  3A80               	xorlw	128
  1385  010C  00FF               	movwf	btemp+1
  1386  010D  3080               	movlw	128
  1387  010E  027F               	subwf	btemp+1,w
  1388  010F  1D03               	skipz
  1389  0110  2913               	goto	u6095
  1390  0111  301A               	movlw	26
  1391  0112  026C               	subwf	main@time^(0+128),w
  1392  0113                     u6095:	
  1393  0113  1C03               	skipc
  1394  0114  2916               	goto	u6091
  1395  0115  2917               	goto	u6090
  1396  0116                     u6091:	
  1397  0116  291C               	goto	l3587
  1398  0117                     u6090:	
  1399  0117                     l3585:	
  1400                           
  1401                           ;main.c: 66:                time = 0;
  1402  0117  1683               	bsf	3,5	;RP0=1, select bank1
  1403  0118  1303               	bcf	3,6	;RP1=0, select bank1
  1404  0119  01EC               	clrf	main@time^(0+128)
  1405  011A  01ED               	clrf	(main@time+1)^(0+128)
  1406  011B  2924               	goto	l3589
  1407  011C                     l3587:	
  1408  011C  3001               	movlw	1
  1409  011D  1683               	bsf	3,5	;RP0=1, select bank1
  1410  011E  1303               	bcf	3,6	;RP1=0, select bank1
  1411  011F  07EC               	addwf	main@time^(0+128),f
  1412  0120  1803               	skipnc
  1413  0121  0AED               	incf	(main@time+1)^(0+128),f
  1414  0122  3000               	movlw	0
  1415  0123  07ED               	addwf	(main@time+1)^(0+128),f
  1416  0124                     l3589:	
  1417                           
  1418                           ;main.c: 68:             ADCON0bits.GO_DONE = 1;
  1419  0124  1283               	bcf	3,5	;RP0=0, select bank0
  1420  0125  1303               	bcf	3,6	;RP1=0, select bank0
  1421  0126  151F               	bsf	31,2	;volatile
  1422  0127                     l3591:	
  1423                           
  1424                           ;main.c: 69:             data = read_ADC();
  1425  0127  160A  158A  263C  120A  118A  	fcall	_read_ADC
  1426  012C  1283               	bcf	3,5	;RP0=0, select bank0
  1427  012D  1303               	bcf	3,6	;RP1=0, select bank0
  1428  012E  084A               	movf	?_read_ADC+3,w
  1429  012F  1683               	bsf	3,5	;RP0=1, select bank1
  1430  0130  1303               	bcf	3,6	;RP1=0, select bank1
  1431  0131  00EB               	movwf	(main@data+3)^(0+128)
  1432  0132  1283               	bcf	3,5	;RP0=0, select bank0
  1433  0133  1303               	bcf	3,6	;RP1=0, select bank0
  1434  0134  0849               	movf	?_read_ADC+2,w
  1435  0135  1683               	bsf	3,5	;RP0=1, select bank1
  1436  0136  1303               	bcf	3,6	;RP1=0, select bank1
  1437  0137  00EA               	movwf	(main@data+2)^(0+128)
  1438  0138  1283               	bcf	3,5	;RP0=0, select bank0
  1439  0139  1303               	bcf	3,6	;RP1=0, select bank0
  1440  013A  0848               	movf	?_read_ADC+1,w
  1441  013B  1683               	bsf	3,5	;RP0=1, select bank1
  1442  013C  1303               	bcf	3,6	;RP1=0, select bank1
  1443  013D  00E9               	movwf	(main@data+1)^(0+128)
  1444  013E  1283               	bcf	3,5	;RP0=0, select bank0
  1445  013F  1303               	bcf	3,6	;RP1=0, select bank0
  1446  0140  0847               	movf	?_read_ADC,w
  1447  0141  1683               	bsf	3,5	;RP0=1, select bank1
  1448  0142  1303               	bcf	3,6	;RP1=0, select bank1
  1449  0143  00E8               	movwf	main@data^(0+128)
  1450  0144                     l3593:	
  1451                           
  1452                           ;main.c: 70:             if(LED_mode == 1)
  1453  0144  0364               	decf	main@LED_mode^(0+128),w
  1454  0145  0465               	iorwf	(main@LED_mode+1)^(0+128),w
  1455  0146  1D03               	btfss	3,2
  1456  0147  2949               	goto	u6101
  1457  0148  294A               	goto	u6100
  1458  0149                     u6101:	
  1459  0149  2988               	goto	l3605
  1460  014A                     u6100:	
  1461  014A                     l3595:	
  1462                           
  1463                           ;main.c: 71:                 if(data>62 && time > 8 )
  1464  014A  3042               	movlw	66
  1465  014B  00F3               	movwf	___flge@ff1+3
  1466  014C  3078               	movlw	120
  1467  014D  00F2               	movwf	___flge@ff1+2
  1468  014E  3000               	movlw	0
  1469  014F  00F1               	movwf	___flge@ff1+1
  1470  0150  3000               	movlw	0
  1471  0151  00F0               	movwf	___flge@ff1
  1472  0152  086B               	movf	(main@data+3)^(0+128),w
  1473  0153  00F7               	movwf	___flge@ff2+3
  1474  0154  086A               	movf	(main@data+2)^(0+128),w
  1475  0155  00F6               	movwf	___flge@ff2+2
  1476  0156  0869               	movf	(main@data+1)^(0+128),w
  1477  0157  00F5               	movwf	___flge@ff2+1
  1478  0158  0868               	movf	main@data^(0+128),w
  1479  0159  00F4               	movwf	___flge@ff2
  1480  015A  160A  158A  26A4  120A  118A  	fcall	___flge
  1481  015F  1803               	btfsc	3,0
  1482  0160  2962               	goto	u6111
  1483  0161  2963               	goto	u6110
  1484  0162                     u6111:	
  1485  0162  2988               	goto	l3605
  1486  0163                     u6110:	
  1487  0163                     l3597:	
  1488  0163  1683               	bsf	3,5	;RP0=1, select bank1
  1489  0164  1303               	bcf	3,6	;RP1=0, select bank1
  1490  0165  086D               	movf	(main@time+1)^(0+128),w
  1491  0166  3A80               	xorlw	128
  1492  0167  00FF               	movwf	btemp+1
  1493  0168  3080               	movlw	128
  1494  0169  027F               	subwf	btemp+1,w
  1495  016A  1D03               	skipz
  1496  016B  296E               	goto	u6125
  1497  016C  3009               	movlw	9
  1498  016D  026C               	subwf	main@time^(0+128),w
  1499  016E                     u6125:	
  1500  016E  1C03               	skipc
  1501  016F  2971               	goto	u6121
  1502  0170  2972               	goto	u6120
  1503  0171                     u6121:	
  1504  0171  2988               	goto	l3605
  1505  0172                     u6120:	
  1506  0172                     l3599:	
  1507                           
  1508                           ;main.c: 72:             {;main.c: 73:                 time = 0;
  1509  0172  1683               	bsf	3,5	;RP0=1, select bank1
  1510  0173  1303               	bcf	3,6	;RP1=0, select bank1
  1511  0174  01EC               	clrf	main@time^(0+128)
  1512  0175  01ED               	clrf	(main@time+1)^(0+128)
  1513  0176                     l3601:	
  1514                           
  1515                           ;main.c: 74:                 PORTB = 0xFF;
  1516  0176  30FF               	movlw	255
  1517  0177  1283               	bcf	3,5	;RP0=0, select bank0
  1518  0178  1303               	bcf	3,6	;RP1=0, select bank0
  1519  0179  0086               	movwf	6	;volatile
  1520  017A                     l3603:	
  1521                           
  1522                           ;main.c: 75:                 _delay((unsigned long)((5)*(20000000/4000.0)));
  1523  017A  3021               	movlw	33
  1524  017B  1683               	bsf	3,5	;RP0=1, select bank1
  1525  017C  1303               	bcf	3,6	;RP1=0, select bank1
  1526  017D  00CC               	movwf	(??_main^(0+128)+1)
  1527  017E  3075               	movlw	117
  1528  017F  00CB               	movwf	??_main^(0+128)
  1529  0180                     u6147:	
  1530  0180  0BCB               	decfsz	??_main^(0+128),f
  1531  0181  2980               	goto	u6147
  1532  0182  0BCC               	decfsz	(??_main^(0+128)+1),f
  1533  0183  2980               	goto	u6147
  1534  0184  2985               	nop2
  1535                           
  1536                           ;main.c: 76:                 PORTB = 0;
  1537  0185  1283               	bcf	3,5	;RP0=0, select bank0
  1538  0186  1303               	bcf	3,6	;RP1=0, select bank0
  1539  0187  0186               	clrf	6	;volatile
  1540  0188                     l3605:	
  1541                           
  1542                           ;main.c: 79:             if(send_mode == 1)
  1543  0188  1683               	bsf	3,5	;RP0=1, select bank1
  1544  0189  1303               	bcf	3,6	;RP1=0, select bank1
  1545  018A  0366               	decf	main@send_mode^(0+128),w
  1546  018B  0467               	iorwf	(main@send_mode+1)^(0+128),w
  1547  018C  1D03               	btfss	3,2
  1548  018D  298F               	goto	u6131
  1549  018E  2990               	goto	u6130
  1550  018F                     u6131:	
  1551  018F  28B4               	goto	l3555
  1552  0190                     u6130:	
  1553  0190                     l3607:	
  1554                           
  1555                           ;main.c: 80:             {;main.c: 83:             sprintf(mess, "%.2f",data);
  1556  0190  30B1               	movlw	(low ((STR_2-__stringbase)| (0+32768)))& (0+255)
  1557  0191  00CB               	movwf	??_main^(0+128)
  1558  0192  084B               	movf	??_main^(0+128),w
  1559  0193  00A8               	movwf	sprintf@f^(0+128)
  1560  0194  086B               	movf	(main@data+3)^(0+128),w
  1561  0195  00AC               	movwf	((?_sprintf+3)^(0+128)+1)
  1562  0196  086A               	movf	(main@data+2)^(0+128),w
  1563  0197  00AB               	movwf	((?_sprintf+2)^(0+128)+1)
  1564  0198  0869               	movf	(main@data+1)^(0+128),w
  1565  0199  00AA               	movwf	((?_sprintf+1)^(0+128)+1)
  1566  019A  0868               	movf	main@data^(0+128),w
  1567  019B  00A9               	movwf	(?_sprintf^(0+128)+1)
  1568  019C  30CE               	movlw	(low (main@mess| 0))& (0+255)
  1569  019D  120A  118A  21C2  120A  118A  	fcall	_sprintf
  1570                           
  1571                           ;main.c: 88:             BT_load_string(mess);
  1572  01A2  30CE               	movlw	(low (main@mess| 0))& (0+255)
  1573  01A3  00F1               	movwf	BT_load_string@string
  1574  01A4  3000               	movlw	0
  1575  01A5  00F2               	movwf	BT_load_string@string+1
  1576  01A6  160A  158A  23C0  120A  118A  	fcall	_BT_load_string
  1577  01AB                     l3609:	
  1578                           
  1579                           ;main.c: 89:             broadcast_BT();
  1580  01AB  160A  118A  200A  120A  118A  	fcall	_broadcast_BT
  1581  01B0                     l3611:	
  1582                           
  1583                           ;main.c: 90:             _delay((unsigned long)((50)*(20000000/4000.0)));
  1584  01B0  3002               	movlw	2
  1585  01B1  1683               	bsf	3,5	;RP0=1, select bank1
  1586  01B2  1303               	bcf	3,6	;RP1=0, select bank1
  1587  01B3  00CD               	movwf	(??_main^(0+128)+2)
  1588  01B4  3045               	movlw	69
  1589  01B5  00CC               	movwf	(??_main^(0+128)+1)
  1590  01B6  30A9               	movlw	169
  1591  01B7  00CB               	movwf	??_main^(0+128)
  1592  01B8                     u6157:	
  1593  01B8  0BCB               	decfsz	??_main^(0+128),f
  1594  01B9  29B8               	goto	u6157
  1595  01BA  0BCC               	decfsz	(??_main^(0+128)+1),f
  1596  01BB  29B8               	goto	u6157
  1597  01BC  0BCD               	decfsz	(??_main^(0+128)+2),f
  1598  01BD  29B8               	goto	u6157
  1599  01BE  28B4               	goto	l3555
  1600  01BF  120A  118A  2800   	ljmp	start
  1601  01C2                     __end_of_main:	
  1602                           
  1603                           	psect	text1
  1604  01C2                     __ptext1:	
  1605 ;; *************** function _sprintf *****************
  1606 ;; Defined at:
  1607 ;;		line 505 in file "C:\Program Files (x86)\Microchip\xc8\v2.10\pic\sources\c90\common\doprnt.c"
  1608 ;; Parameters:    Size  Location     Type
  1609 ;;  sp              1    wreg     PTR unsigned char 
  1610 ;;		 -> main@mess(20), 
  1611 ;;  f               1    8[BANK1 ] PTR const unsigned char 
  1612 ;;		 -> STR_2(5), 
  1613 ;; Auto vars:     Size  Location     Type
  1614 ;;  sp              1   35[BANK1 ] PTR unsigned char 
  1615 ;;		 -> main@mess(20), 
  1616 ;;  fval            4   38[BANK1 ] PTR unsigned char 
  1617 ;;  tmpval          4   31[BANK1 ] struct .
  1618 ;;  val             4   25[BANK1 ] unsigned long 
  1619 ;;  prec            2   36[BANK1 ] int 
  1620 ;;  eexp            2   29[BANK1 ] int 
  1621 ;;  flag            2   23[BANK1 ] unsigned short 
  1622 ;;  cp              2    0        PTR const unsigned char 
  1623 ;;  len             2    0        unsigned int 
  1624 ;;  width           2    0        int 
  1625 ;;  c               1   42[BANK1 ] unsigned char 
  1626 ;;  ap              1   22[BANK1 ] PTR void [1]
  1627 ;;		 -> ?_sprintf(2), 
  1628 ;;  d               1    0        unsigned char 
  1629 ;; Return value:  Size  Location     Type
  1630 ;;                  2    8[BANK1 ] int 
  1631 ;; Registers used:
  1632 ;;		wreg, fsr0l, fsr0h, status,2, status,0, btemp+1, pclath, cstack
  1633 ;; Tracked objects:
  1634 ;;		On entry : 0/0
  1635 ;;		On exit  : 0/0
  1636 ;;		Unchanged: 0/0
  1637 ;; Data sizes:     COMMON   BANK0   BANK1   BANK3   BANK2
  1638 ;;      Params:         0       0       5       0       0
  1639 ;;      Locals:         0       0      25       0       0
  1640 ;;      Temps:          0       0       5       0       0
  1641 ;;      Totals:         0       0      35       0       0
  1642 ;;Total ram usage:       35 bytes
  1643 ;; Hardware stack levels used:    1
  1644 ;; Hardware stack levels required when called:    3
  1645 ;; This function calls:
  1646 ;;		___awdiv
  1647 ;;		___fladd
  1648 ;;		___fleq
  1649 ;;		___flge
  1650 ;;		___flmul
  1651 ;;		___flneg
  1652 ;;		___flsub
  1653 ;;		___fltol
  1654 ;;		___lldiv
  1655 ;;		___llmod
  1656 ;;		___wmul
  1657 ;;		___xxtofl
  1658 ;;		__div_to_l_
  1659 ;;		__tdiv_to_l_
  1660 ;;		_fround
  1661 ;;		_isdigit
  1662 ;;		_scale
  1663 ;; This function is called by:
  1664 ;;		_main
  1665 ;; This function uses a non-reentrant model
  1666 ;;
  1667                           
  1668                           
  1669                           ;psect for function _sprintf
  1670  01C2                     _sprintf:	
  1671                           
  1672                           ;incstack = 0
  1673                           ; Regs used in _sprintf: [wreg-fsr0h+status,2+status,0+btemp+1+pclath+cstack]
  1674                           ;sprintf@sp stored from wreg
  1675  01C2  1683               	bsf	3,5	;RP0=1, select bank1
  1676  01C3  1303               	bcf	3,6	;RP1=0, select bank1
  1677  01C4  00C3               	movwf	sprintf@sp^(0+128)
  1678  01C5                     l3327:	
  1679                           
  1680                           ;C:\Program Files (x86)\Microchip\xc8\v2.10\pic\sources\c90\common\doprnt.c: 505: sprint
      +                          f(char * sp, const char * f, ...);C:\Program Files (x86)\Microchip\xc8\v2.10\pic\sources
      +                          \c90\common\doprnt.c: 506: {;C:\Program Files (x86)\Microchip\xc8\v2.10\pic\sources\c90\
      +                          common\doprnt.c: 507:  va_list ap;;C:\Program Files (x86)\Microchip\xc8\v2.10\pic\source
      +                          s\c90\common\doprnt.c: 512:  char c;;C:\Program Files (x86)\Microchip\xc8\v2.10\pic\sour
      +                          ces\c90\common\doprnt.c: 514:  int width;;C:\Program Files (x86)\Microchip\xc8\v2.10\pic
      +                          \sources\c90\common\doprnt.c: 517:  int prec;
  1681  01C5  30A9               	movlw	(low ((?_sprintf| 0+1)))& (0+255)
  1682  01C6  00AD               	movwf	??_sprintf^(0+128)
  1683  01C7  082D               	movf	??_sprintf^(0+128),w
  1684  01C8  00B6               	movwf	sprintf@ap^(0+128)
  1685                           
  1686                           ;C:\Program Files (x86)\Microchip\xc8\v2.10\pic\sources\c90\common\doprnt.c: 553:  while
      +                          ((c = *f++)) {
  1687  01C9  2FE5               	goto	l3521
  1688  01CA                     l3329:	
  1689                           
  1690                           ;C:\Program Files (x86)\Microchip\xc8\v2.10\pic\sources\c90\common\doprnt.c: 555:   if(c
      +                           != '%')
  1691  01CA  3025               	movlw	37
  1692  01CB  064A               	xorwf	sprintf@c^(0+128),w
  1693  01CC  1903               	btfsc	3,2
  1694  01CD  29CF               	goto	u5671
  1695  01CE  29D0               	goto	u5670
  1696  01CF                     u5671:	
  1697  01CF  29DC               	goto	l3335
  1698  01D0                     u5670:	
  1699  01D0                     l3331:	
  1700                           
  1701                           ;C:\Program Files (x86)\Microchip\xc8\v2.10\pic\sources\c90\common\doprnt.c: 557:   {;C:
      +                          \Program Files (x86)\Microchip\xc8\v2.10\pic\sources\c90\common\doprnt.c: 558:    ((*sp+
      +                          + = (c)));
  1702  01D0  084A               	movf	sprintf@c^(0+128),w
  1703  01D1  00AD               	movwf	??_sprintf^(0+128)
  1704  01D2  0843               	movf	sprintf@sp^(0+128),w
  1705  01D3  0084               	movwf	4
  1706  01D4  082D               	movf	??_sprintf^(0+128),w
  1707  01D5  1383               	bcf	3,7	;select IRP bank0
  1708  01D6  0080               	movwf	0
  1709  01D7                     l3333:	
  1710  01D7  3001               	movlw	1
  1711  01D8  00AD               	movwf	??_sprintf^(0+128)
  1712  01D9  082D               	movf	??_sprintf^(0+128),w
  1713  01DA  07C3               	addwf	sprintf@sp^(0+128),f
  1714                           
  1715                           ;C:\Program Files (x86)\Microchip\xc8\v2.10\pic\sources\c90\common\doprnt.c: 559:    con
      +                          tinue;
  1716  01DB  2FE5               	goto	l3521
  1717  01DC                     l3335:	
  1718                           
  1719                           ;C:\Program Files (x86)\Microchip\xc8\v2.10\pic\sources\c90\common\doprnt.c: 565:   flag
      +                           = 0;
  1720  01DC  01B7               	clrf	sprintf@flag^(0+128)
  1721  01DD  01B8               	clrf	(sprintf@flag+1)^(0+128)
  1722  01DE                     l3337:	
  1723                           
  1724                           ;C:\Program Files (x86)\Microchip\xc8\v2.10\pic\sources\c90\common\doprnt.c: 628:   if(*
      +                          f == '.') {
  1725  01DE  0828               	movf	sprintf@f^(0+128),w
  1726  01DF  0084               	movwf	4
  1727  01E0  120A  158A  200A  120A  118A  	fcall	stringdir
  1728  01E5  3A2E               	xorlw	46
  1729  01E6  1D03               	skipz
  1730  01E7  29E9               	goto	u5681
  1731  01E8  29EA               	goto	u5680
  1732  01E9                     u5681:	
  1733  01E9  2A2F               	goto	l3353
  1734  01EA                     u5680:	
  1735  01EA                     l3339:	
  1736                           
  1737                           ;C:\Program Files (x86)\Microchip\xc8\v2.10\pic\sources\c90\common\doprnt.c: 629:    fla
      +                          g |= 0x4000;
  1738  01EA  1738               	bsf	(sprintf@flag^(0+128)+1),6
  1739  01EB                     l3341:	
  1740                           
  1741                           ;C:\Program Files (x86)\Microchip\xc8\v2.10\pic\sources\c90\common\doprnt.c: 630:    f++
      +                          ;
  1742  01EB  3001               	movlw	1
  1743  01EC  00AD               	movwf	??_sprintf^(0+128)
  1744  01ED  082D               	movf	??_sprintf^(0+128),w
  1745  01EE  07A8               	addwf	sprintf@f^(0+128),f
  1746  01EF                     l3343:	
  1747                           
  1748                           ;C:\Program Files (x86)\Microchip\xc8\v2.10\pic\sources\c90\common\doprnt.c: 644:    {;C
      +                          :\Program Files (x86)\Microchip\xc8\v2.10\pic\sources\c90\common\doprnt.c: 645:     prec
      +                           = 0;
  1749  01EF  01C4               	clrf	sprintf@prec^(0+128)
  1750  01F0  01C5               	clrf	(sprintf@prec+1)^(0+128)
  1751                           
  1752                           ;C:\Program Files (x86)\Microchip\xc8\v2.10\pic\sources\c90\common\doprnt.c: 646:     wh
      +                          ile(isdigit((unsigned)*f)) {
  1753  01F1  2A1E               	goto	l3351
  1754  01F2                     l3345:	
  1755                           
  1756                           ;C:\Program Files (x86)\Microchip\xc8\v2.10\pic\sources\c90\common\doprnt.c: 647:      p
      +                          rec *= 10;
  1757  01F2  300A               	movlw	10
  1758  01F3  00F0               	movwf	___wmul@multiplier
  1759  01F4  3000               	movlw	0
  1760  01F5  00F1               	movwf	___wmul@multiplier+1
  1761  01F6  1683               	bsf	3,5	;RP0=1, select bank1
  1762  01F7  1303               	bcf	3,6	;RP1=0, select bank1
  1763  01F8  0845               	movf	(sprintf@prec+1)^(0+128),w
  1764  01F9  00F3               	movwf	___wmul@multiplicand+1
  1765  01FA  0844               	movf	sprintf@prec^(0+128),w
  1766  01FB  00F2               	movwf	___wmul@multiplicand
  1767  01FC  160A  158A  239B  120A  118A  	fcall	___wmul
  1768  0201  0871               	movf	?___wmul+1,w
  1769  0202  1683               	bsf	3,5	;RP0=1, select bank1
  1770  0203  1303               	bcf	3,6	;RP1=0, select bank1
  1771  0204  00C5               	movwf	(sprintf@prec+1)^(0+128)
  1772  0205  0870               	movf	?___wmul,w
  1773  0206  00C4               	movwf	sprintf@prec^(0+128)
  1774  0207                     l3347:	
  1775                           
  1776                           ;C:\Program Files (x86)\Microchip\xc8\v2.10\pic\sources\c90\common\doprnt.c: 648:       
      +                            prec += *f++ - '0';
  1777  0207  0828               	movf	sprintf@f^(0+128),w
  1778  0208  0084               	movwf	4
  1779  0209  120A  158A  200A  120A  118A  	fcall	stringdir
  1780  020E  3ED0               	addlw	208
  1781  020F  00AD               	movwf	??_sprintf^(0+128)
  1782  0210  30FF               	movlw	255
  1783  0211  1803               	skipnc
  1784  0212  3000               	movlw	0
  1785  0213  00AE               	movwf	(??_sprintf^(0+128)+1)
  1786  0214  082D               	movf	??_sprintf^(0+128),w
  1787  0215  07C4               	addwf	sprintf@prec^(0+128),f
  1788  0216  1803               	skipnc
  1789  0217  0AC5               	incf	(sprintf@prec+1)^(0+128),f
  1790  0218  082E               	movf	(??_sprintf+1)^(0+128),w
  1791  0219  07C5               	addwf	(sprintf@prec+1)^(0+128),f
  1792  021A                     l3349:	
  1793  021A  3001               	movlw	1
  1794  021B  00AD               	movwf	??_sprintf^(0+128)
  1795  021C  082D               	movf	??_sprintf^(0+128),w
  1796  021D  07A8               	addwf	sprintf@f^(0+128),f
  1797  021E                     l3351:	
  1798                           
  1799                           ;C:\Program Files (x86)\Microchip\xc8\v2.10\pic\sources\c90\common\doprnt.c: 646:     wh
      +                          ile(isdigit((unsigned)*f)) {
  1800  021E  0828               	movf	sprintf@f^(0+128),w
  1801  021F  0084               	movwf	4
  1802  0220  120A  158A  200A  120A  118A  	fcall	stringdir
  1803  0225  120A  158A  20C5  120A  118A  	fcall	_isdigit
  1804  022A  1803               	btfsc	3,0
  1805  022B  2A2D               	goto	u5691
  1806  022C  2A2E               	goto	u5690
  1807  022D                     u5691:	
  1808  022D  29F2               	goto	l3345
  1809  022E                     u5690:	
  1810  022E  2A35               	goto	l3359
  1811  022F                     l3353:	
  1812                           
  1813                           ;C:\Program Files (x86)\Microchip\xc8\v2.10\pic\sources\c90\common\doprnt.c: 652:    pre
      +                          c = 0;
  1814  022F  01C4               	clrf	sprintf@prec^(0+128)
  1815  0230  01C5               	clrf	(sprintf@prec+1)^(0+128)
  1816  0231                     l3355:	
  1817                           
  1818                           ;C:\Program Files (x86)\Microchip\xc8\v2.10\pic\sources\c90\common\doprnt.c: 654:    fla
      +                          g |= 0x1000;
  1819  0231  1638               	bsf	(sprintf@flag^(0+128)+1),4
  1820  0232  2A35               	goto	l3359
  1821  0233                     l267:	
  1822                           ;C:\Program Files (x86)\Microchip\xc8\v2.10\pic\sources\c90\common\doprnt.c: 688:   case
      +                           'f':
  1823                           
  1824                           
  1825                           ;C:\Program Files (x86)\Microchip\xc8\v2.10\pic\sources\c90\common\doprnt.c: 689:    fla
      +                          g |= 0x400;
  1826  0233  1538               	bsf	(sprintf@flag^(0+128)+1),2
  1827                           
  1828                           ;C:\Program Files (x86)\Microchip\xc8\v2.10\pic\sources\c90\common\doprnt.c: 690:    bre
      +                          ak;
  1829  0234  2A51               	goto	l3361
  1830  0235                     l3359:	
  1831  0235  3001               	movlw	1
  1832  0236  1683               	bsf	3,5	;RP0=1, select bank1
  1833  0237  1303               	bcf	3,6	;RP1=0, select bank1
  1834  0238  07A8               	addwf	sprintf@f^(0+128),f
  1835  0239  30FF               	movlw	-1
  1836  023A  0728               	addwf	sprintf@f^(0+128),w
  1837  023B  0084               	movwf	4
  1838  023C  120A  158A  200A  120A  118A  	fcall	stringdir
  1839  0241  00CA               	movwf	sprintf@c^(0+128)
  1840  0242  00AD               	movwf	??_sprintf^(0+128)
  1841  0243  01AE               	clrf	(??_sprintf^(0+128)+1)
  1842                           
  1843                           ; Switch on 2 bytes has been partitioned into a top level switch of size 1, and 1 sub-sw
      +                          itches
  1844                           ; Switch size 1, requested type "simple"
  1845                           ; Number of cases is 1, Range of values is 0 to 0
  1846                           ; switch strategies available:
  1847                           ; Name         Instructions Cycles
  1848                           ; simple_byte            4     3 (average)
  1849                           ; direct_byte           11     8 (fixed)
  1850                           ; jumptable            260     6 (fixed)
  1851                           ;	Chosen strategy is simple_byte
  1852  0244  082E               	movf	(??_sprintf+1)^(0+128),w
  1853  0245  3A00               	xorlw	0	; case 0
  1854  0246  1903               	skipnz
  1855  0247  2A49               	goto	l3643
  1856  0248  2FE5               	goto	l3521
  1857  0249                     l3643:	
  1858                           
  1859                           ; Switch size 1, requested type "simple"
  1860                           ; Number of cases is 2, Range of values is 0 to 102
  1861                           ; switch strategies available:
  1862                           ; Name         Instructions Cycles
  1863                           ; simple_byte            7     4 (average)
  1864                           ; jumptable            260     6 (fixed)
  1865                           ;	Chosen strategy is simple_byte
  1866  0249  082D               	movf	??_sprintf^(0+128),w
  1867  024A  3A00               	xorlw	0	; case 0
  1868  024B  1903               	skipnz
  1869  024C  2FF7               	goto	l3523
  1870  024D  3A66               	xorlw	102	; case 102
  1871  024E  1903               	skipnz
  1872  024F  2A33               	goto	l267
  1873  0250  2FE5               	goto	l3521
  1874  0251                     l3361:	
  1875                           
  1876                           ;C:\Program Files (x86)\Microchip\xc8\v2.10\pic\sources\c90\common\doprnt.c: 851:   if(f
      +                          lag & (0x700)) {
  1877  0251  3000               	movlw	0
  1878  0252  0537               	andwf	sprintf@flag^(0+128),w
  1879  0253  00AD               	movwf	??_sprintf^(0+128)
  1880  0254  3007               	movlw	7
  1881  0255  0538               	andwf	(sprintf@flag+1)^(0+128),w
  1882  0256  00AE               	movwf	(??_sprintf+1)^(0+128)
  1883  0257  082D               	movf	??_sprintf^(0+128),w
  1884  0258  042E               	iorwf	(??_sprintf^(0+128)+1),w
  1885  0259  1903               	btfsc	3,2
  1886  025A  2A5C               	goto	u5701
  1887  025B  2A5D               	goto	u5700
  1888  025C                     u5701:	
  1889  025C  2FA0               	goto	l3503
  1890  025D                     u5700:	
  1891  025D                     l3363:	
  1892                           
  1893                           ;C:\Program Files (x86)\Microchip\xc8\v2.10\pic\sources\c90\common\doprnt.c: 853:    if(
      +                          flag & 0x1000)
  1894  025D  1E38               	btfss	(sprintf@flag+1)^(0+128),4
  1895  025E  2A60               	goto	u5711
  1896  025F  2A61               	goto	u5710
  1897  0260                     u5711:	
  1898  0260  2A65               	goto	l3367
  1899  0261                     u5710:	
  1900  0261                     l3365:	
  1901                           
  1902                           ;C:\Program Files (x86)\Microchip\xc8\v2.10\pic\sources\c90\common\doprnt.c: 855:     pr
      +                          ec = 6;
  1903  0261  3006               	movlw	6
  1904  0262  00C4               	movwf	sprintf@prec^(0+128)
  1905  0263  3000               	movlw	0
  1906  0264  00C5               	movwf	(sprintf@prec^(0+128)+1)
  1907  0265                     l3367:	
  1908                           
  1909                           ;C:\Program Files (x86)\Microchip\xc8\v2.10\pic\sources\c90\common\doprnt.c: 856:    fva
      +                          l = (*(double *)__va_arg((*(double **)ap), (double)0));
  1910  0265  0836               	movf	sprintf@ap^(0+128),w
  1911  0266  0084               	movwf	4
  1912  0267  1383               	bcf	3,7	;select IRP bank0
  1913  0268  0800               	movf	0,w
  1914  0269  00C6               	movwf	sprintf@fval^(0+128)
  1915  026A  0A84               	incf	4,f
  1916  026B  0800               	movf	0,w
  1917  026C  00C7               	movwf	(sprintf@fval+1)^(0+128)
  1918  026D  0A84               	incf	4,f
  1919  026E  0800               	movf	0,w
  1920  026F  00C8               	movwf	(sprintf@fval+2)^(0+128)
  1921  0270  0A84               	incf	4,f
  1922  0271  0800               	movf	0,w
  1923  0272  00C9               	movwf	(sprintf@fval+3)^(0+128)
  1924  0273                     l3369:	
  1925  0273  3004               	movlw	4
  1926  0274  00AD               	movwf	??_sprintf^(0+128)
  1927  0275  082D               	movf	??_sprintf^(0+128),w
  1928  0276  07B6               	addwf	sprintf@ap^(0+128),f
  1929  0277                     l3371:	
  1930                           
  1931                           ;C:\Program Files (x86)\Microchip\xc8\v2.10\pic\sources\c90\common\doprnt.c: 857:    if(
      +                          fval < 0.0) {
  1932  0277  0849               	movf	(sprintf@fval+3)^(0+128),w
  1933  0278  00F3               	movwf	___flge@ff1+3
  1934  0279  0848               	movf	(sprintf@fval+2)^(0+128),w
  1935  027A  00F2               	movwf	___flge@ff1+2
  1936  027B  0847               	movf	(sprintf@fval+1)^(0+128),w
  1937  027C  00F1               	movwf	___flge@ff1+1
  1938  027D  0846               	movf	sprintf@fval^(0+128),w
  1939  027E  00F0               	movwf	___flge@ff1
  1940  027F  3000               	movlw	0
  1941  0280  00F7               	movwf	___flge@ff2+3
  1942  0281  3000               	movlw	0
  1943  0282  00F6               	movwf	___flge@ff2+2
  1944  0283  3000               	movlw	0
  1945  0284  00F5               	movwf	___flge@ff2+1
  1946  0285  3000               	movlw	0
  1947  0286  00F4               	movwf	___flge@ff2
  1948  0287  160A  158A  26A4  120A  118A  	fcall	___flge
  1949  028C  1803               	btfsc	3,0
  1950  028D  2A8F               	goto	u5721
  1951  028E  2A90               	goto	u5720
  1952  028F                     u5721:	
  1953  028F  2AAD               	goto	l3377
  1954  0290                     u5720:	
  1955  0290                     l3373:	
  1956                           
  1957                           ;C:\Program Files (x86)\Microchip\xc8\v2.10\pic\sources\c90\common\doprnt.c: 858:     fv
      +                          al = -fval;
  1958  0290  1683               	bsf	3,5	;RP0=1, select bank1
  1959  0291  1303               	bcf	3,6	;RP1=0, select bank1
  1960  0292  0849               	movf	(sprintf@fval+3)^(0+128),w
  1961  0293  00F3               	movwf	___flneg@f1+3
  1962  0294  0848               	movf	(sprintf@fval+2)^(0+128),w
  1963  0295  00F2               	movwf	___flneg@f1+2
  1964  0296  0847               	movf	(sprintf@fval+1)^(0+128),w
  1965  0297  00F1               	movwf	___flneg@f1+1
  1966  0298  0846               	movf	sprintf@fval^(0+128),w
  1967  0299  00F0               	movwf	___flneg@f1
  1968  029A  120A  118A  2004  120A  118A  	fcall	___flneg
  1969  029F  0873               	movf	?___flneg+3,w
  1970  02A0  1683               	bsf	3,5	;RP0=1, select bank1
  1971  02A1  1303               	bcf	3,6	;RP1=0, select bank1
  1972  02A2  00C9               	movwf	(sprintf@fval+3)^(0+128)
  1973  02A3  0872               	movf	?___flneg+2,w
  1974  02A4  00C8               	movwf	(sprintf@fval+2)^(0+128)
  1975  02A5  0871               	movf	?___flneg+1,w
  1976  02A6  00C7               	movwf	(sprintf@fval+1)^(0+128)
  1977  02A7  0870               	movf	?___flneg,w
  1978  02A8  00C6               	movwf	sprintf@fval^(0+128)
  1979  02A9                     l3375:	
  1980                           
  1981                           ;C:\Program Files (x86)\Microchip\xc8\v2.10\pic\sources\c90\common\doprnt.c: 859:     fl
      +                          ag |= 0x03;
  1982  02A9  3003               	movlw	3
  1983  02AA  04B7               	iorwf	sprintf@flag^(0+128),f
  1984  02AB  3000               	movlw	0
  1985  02AC  04B8               	iorwf	(sprintf@flag+1)^(0+128),f
  1986  02AD                     l3377:	
  1987                           
  1988                           ;C:\Program Files (x86)\Microchip\xc8\v2.10\pic\sources\c90\common\doprnt.c: 861:    eex
      +                          p = 0;
  1989  02AD  1683               	bsf	3,5	;RP0=1, select bank1
  1990  02AE  1303               	bcf	3,6	;RP1=0, select bank1
  1991  02AF  01BD               	clrf	sprintf@eexp^(0+128)
  1992  02B0  01BE               	clrf	(sprintf@eexp+1)^(0+128)
  1993  02B1                     l3379:	
  1994                           
  1995                           ;C:\Program Files (x86)\Microchip\xc8\v2.10\pic\sources\c90\common\doprnt.c: 862:    if(
      +                           fval!=0) {
  1996  02B1  0849               	movf	(sprintf@fval+3)^(0+128),w
  1997  02B2  00F3               	movwf	___fleq@ff1+3
  1998  02B3  0848               	movf	(sprintf@fval+2)^(0+128),w
  1999  02B4  00F2               	movwf	___fleq@ff1+2
  2000  02B5  0847               	movf	(sprintf@fval+1)^(0+128),w
  2001  02B6  00F1               	movwf	___fleq@ff1+1
  2002  02B7  0846               	movf	sprintf@fval^(0+128),w
  2003  02B8  00F0               	movwf	___fleq@ff1
  2004  02B9  3000               	movlw	0
  2005  02BA  00F7               	movwf	___fleq@ff2+3
  2006  02BB  3000               	movlw	0
  2007  02BC  00F6               	movwf	___fleq@ff2+2
  2008  02BD  3000               	movlw	0
  2009  02BE  00F5               	movwf	___fleq@ff2+1
  2010  02BF  3000               	movlw	0
  2011  02C0  00F4               	movwf	___fleq@ff2
  2012  02C1  160A  158A  248B  120A  118A  	fcall	___fleq
  2013  02C6  1803               	btfsc	3,0
  2014  02C7  2AC9               	goto	u5731
  2015  02C8  2ACA               	goto	u5730
  2016  02C9                     u5731:	
  2017  02C9  2BBA               	goto	l3405
  2018  02CA                     u5730:	
  2019  02CA                     l3381:	
  2020                           
  2021                           ;C:\Program Files (x86)\Microchip\xc8\v2.10\pic\sources\c90\common\doprnt.c: 863:     (v
      +                          oid)(*(&eexp) = (unsigned char)((*(unsigned long *)&fval >> 23) & 255) - 126);
  2022  02CA  1003               	clrc
  2023  02CB  1683               	bsf	3,5	;RP0=1, select bank1
  2024  02CC  1303               	bcf	3,6	;RP1=0, select bank1
  2025  02CD  0D48               	rlf	(sprintf@fval+2)^(0+128),w
  2026  02CE  0D49               	rlf	(sprintf@fval+3)^(0+128),w
  2027  02CF  3E82               	addlw	130
  2028  02D0  00BD               	movwf	sprintf@eexp^(0+128)
  2029  02D1  30FF               	movlw	255
  2030  02D2  1803               	skipnc
  2031  02D3  3000               	movlw	0
  2032  02D4  00BE               	movwf	(sprintf@eexp^(0+128)+1)
  2033  02D5                     l3383:	
  2034                           
  2035                           ;C:\Program Files (x86)\Microchip\xc8\v2.10\pic\sources\c90\common\doprnt.c: 864:     ee
      +                          xp--;
  2036  02D5  30FF               	movlw	255
  2037  02D6  07BD               	addwf	sprintf@eexp^(0+128),f
  2038  02D7  1803               	skipnc
  2039  02D8  0ABE               	incf	(sprintf@eexp+1)^(0+128),f
  2040  02D9  30FF               	movlw	255
  2041  02DA  07BE               	addwf	(sprintf@eexp+1)^(0+128),f
  2042  02DB                     l3385:	
  2043                           
  2044                           ;C:\Program Files (x86)\Microchip\xc8\v2.10\pic\sources\c90\common\doprnt.c: 865:     ee
      +                          xp *= 3;
  2045  02DB  3003               	movlw	3
  2046  02DC  00F0               	movwf	___wmul@multiplier
  2047  02DD  3000               	movlw	0
  2048  02DE  00F1               	movwf	___wmul@multiplier+1
  2049  02DF  083E               	movf	(sprintf@eexp+1)^(0+128),w
  2050  02E0  00F3               	movwf	___wmul@multiplicand+1
  2051  02E1  083D               	movf	sprintf@eexp^(0+128),w
  2052  02E2  00F2               	movwf	___wmul@multiplicand
  2053  02E3  160A  158A  239B  120A  118A  	fcall	___wmul
  2054  02E8  0871               	movf	?___wmul+1,w
  2055  02E9  1683               	bsf	3,5	;RP0=1, select bank1
  2056  02EA  1303               	bcf	3,6	;RP1=0, select bank1
  2057  02EB  00BE               	movwf	(sprintf@eexp+1)^(0+128)
  2058  02EC  0870               	movf	?___wmul,w
  2059  02ED  00BD               	movwf	sprintf@eexp^(0+128)
  2060  02EE                     l3387:	
  2061                           
  2062                           ;C:\Program Files (x86)\Microchip\xc8\v2.10\pic\sources\c90\common\doprnt.c: 866:     ee
      +                          xp /= 10;
  2063  02EE  300A               	movlw	10
  2064  02EF  00F7               	movwf	___awdiv@divisor
  2065  02F0  3000               	movlw	0
  2066  02F1  00F8               	movwf	___awdiv@divisor+1
  2067  02F2  083E               	movf	(sprintf@eexp+1)^(0+128),w
  2068  02F3  00FA               	movwf	___awdiv@dividend+1
  2069  02F4  083D               	movf	sprintf@eexp^(0+128),w
  2070  02F5  00F9               	movwf	___awdiv@dividend
  2071  02F6  120A  158A  20D7  120A  118A  	fcall	___awdiv
  2072  02FB  0878               	movf	?___awdiv+1,w
  2073  02FC  1683               	bsf	3,5	;RP0=1, select bank1
  2074  02FD  1303               	bcf	3,6	;RP1=0, select bank1
  2075  02FE  00BE               	movwf	(sprintf@eexp+1)^(0+128)
  2076  02FF  0877               	movf	?___awdiv,w
  2077  0300  00BD               	movwf	sprintf@eexp^(0+128)
  2078  0301                     l3389:	
  2079                           
  2080                           ;C:\Program Files (x86)\Microchip\xc8\v2.10\pic\sources\c90\common\doprnt.c: 867:     if
      +                          (eexp < 0)
  2081  0301  1FBE               	btfss	(sprintf@eexp+1)^(0+128),7
  2082  0302  2B04               	goto	u5741
  2083  0303  2B05               	goto	u5740
  2084  0304                     u5741:	
  2085  0304  2B0B               	goto	l3393
  2086  0305                     u5740:	
  2087  0305                     l3391:	
  2088                           
  2089                           ;C:\Program Files (x86)\Microchip\xc8\v2.10\pic\sources\c90\common\doprnt.c: 868:      e
      +                          exp--;
  2090  0305  30FF               	movlw	255
  2091  0306  07BD               	addwf	sprintf@eexp^(0+128),f
  2092  0307  1803               	skipnc
  2093  0308  0ABE               	incf	(sprintf@eexp+1)^(0+128),f
  2094  0309  30FF               	movlw	255
  2095  030A  07BE               	addwf	(sprintf@eexp+1)^(0+128),f
  2096  030B                     l3393:	
  2097                           
  2098                           ;C:\Program Files (x86)\Microchip\xc8\v2.10\pic\sources\c90\common\doprnt.c: 872:     tm
      +                          pval.integ = scale(-eexp);
  2099  030B  033D               	decf	sprintf@eexp^(0+128),w
  2100  030C  3AFF               	xorlw	255
  2101  030D  120A  158A  2140  120A  118A  	fcall	_scale
  2102  0312  1283               	bcf	3,5	;RP0=0, select bank0
  2103  0313  1303               	bcf	3,6	;RP1=0, select bank0
  2104  0314  084A               	movf	?_scale+3,w
  2105  0315  1683               	bsf	3,5	;RP0=1, select bank1
  2106  0316  1303               	bcf	3,6	;RP1=0, select bank1
  2107  0317  00C2               	movwf	(sprintf@tmpval+3)^(0+128)
  2108  0318  1283               	bcf	3,5	;RP0=0, select bank0
  2109  0319  1303               	bcf	3,6	;RP1=0, select bank0
  2110  031A  0849               	movf	?_scale+2,w
  2111  031B  1683               	bsf	3,5	;RP0=1, select bank1
  2112  031C  1303               	bcf	3,6	;RP1=0, select bank1
  2113  031D  00C1               	movwf	(sprintf@tmpval+2)^(0+128)
  2114  031E  1283               	bcf	3,5	;RP0=0, select bank0
  2115  031F  1303               	bcf	3,6	;RP1=0, select bank0
  2116  0320  0848               	movf	?_scale+1,w
  2117  0321  1683               	bsf	3,5	;RP0=1, select bank1
  2118  0322  1303               	bcf	3,6	;RP1=0, select bank1
  2119  0323  00C0               	movwf	(sprintf@tmpval+1)^(0+128)
  2120  0324  1283               	bcf	3,5	;RP0=0, select bank0
  2121  0325  1303               	bcf	3,6	;RP1=0, select bank0
  2122  0326  0847               	movf	?_scale,w
  2123  0327  1683               	bsf	3,5	;RP0=1, select bank1
  2124  0328  1303               	bcf	3,6	;RP1=0, select bank1
  2125  0329  00BF               	movwf	sprintf@tmpval^(0+128)
  2126  032A                     l3395:	
  2127                           
  2128                           ;C:\Program Files (x86)\Microchip\xc8\v2.10\pic\sources\c90\common\doprnt.c: 873:     tm
      +                          pval.integ *= fval;
  2129  032A  0849               	movf	(sprintf@fval+3)^(0+128),w
  2130  032B  1283               	bcf	3,5	;RP0=0, select bank0
  2131  032C  1303               	bcf	3,6	;RP1=0, select bank0
  2132  032D  00B0               	movwf	___flmul@b+3
  2133  032E  1683               	bsf	3,5	;RP0=1, select bank1
  2134  032F  1303               	bcf	3,6	;RP1=0, select bank1
  2135  0330  0848               	movf	(sprintf@fval+2)^(0+128),w
  2136  0331  1283               	bcf	3,5	;RP0=0, select bank0
  2137  0332  1303               	bcf	3,6	;RP1=0, select bank0
  2138  0333  00AF               	movwf	___flmul@b+2
  2139  0334  1683               	bsf	3,5	;RP0=1, select bank1
  2140  0335  1303               	bcf	3,6	;RP1=0, select bank1
  2141  0336  0847               	movf	(sprintf@fval+1)^(0+128),w
  2142  0337  1283               	bcf	3,5	;RP0=0, select bank0
  2143  0338  1303               	bcf	3,6	;RP1=0, select bank0
  2144  0339  00AE               	movwf	___flmul@b+1
  2145  033A  1683               	bsf	3,5	;RP0=1, select bank1
  2146  033B  1303               	bcf	3,6	;RP1=0, select bank1
  2147  033C  0846               	movf	sprintf@fval^(0+128),w
  2148  033D  1283               	bcf	3,5	;RP0=0, select bank0
  2149  033E  1303               	bcf	3,6	;RP1=0, select bank0
  2150  033F  00AD               	movwf	___flmul@b
  2151  0340  1683               	bsf	3,5	;RP0=1, select bank1
  2152  0341  1303               	bcf	3,6	;RP1=0, select bank1
  2153  0342  0842               	movf	(sprintf@tmpval+3)^(0+128),w
  2154  0343  1283               	bcf	3,5	;RP0=0, select bank0
  2155  0344  1303               	bcf	3,6	;RP1=0, select bank0
  2156  0345  00B4               	movwf	___flmul@a+3
  2157  0346  1683               	bsf	3,5	;RP0=1, select bank1
  2158  0347  1303               	bcf	3,6	;RP1=0, select bank1
  2159  0348  0841               	movf	(sprintf@tmpval+2)^(0+128),w
  2160  0349  1283               	bcf	3,5	;RP0=0, select bank0
  2161  034A  1303               	bcf	3,6	;RP1=0, select bank0
  2162  034B  00B3               	movwf	___flmul@a+2
  2163  034C  1683               	bsf	3,5	;RP0=1, select bank1
  2164  034D  1303               	bcf	3,6	;RP1=0, select bank1
  2165  034E  0840               	movf	(sprintf@tmpval+1)^(0+128),w
  2166  034F  1283               	bcf	3,5	;RP0=0, select bank0
  2167  0350  1303               	bcf	3,6	;RP1=0, select bank0
  2168  0351  00B2               	movwf	___flmul@a+1
  2169  0352  1683               	bsf	3,5	;RP0=1, select bank1
  2170  0353  1303               	bcf	3,6	;RP1=0, select bank1
  2171  0354  083F               	movf	sprintf@tmpval^(0+128),w
  2172  0355  1283               	bcf	3,5	;RP0=0, select bank0
  2173  0356  1303               	bcf	3,6	;RP1=0, select bank0
  2174  0357  00B1               	movwf	___flmul@a
  2175  0358  120A  158A  249F  120A  118A  	fcall	___flmul
  2176  035D  1283               	bcf	3,5	;RP0=0, select bank0
  2177  035E  1303               	bcf	3,6	;RP1=0, select bank0
  2178  035F  0830               	movf	?___flmul+3,w
  2179  0360  1683               	bsf	3,5	;RP0=1, select bank1
  2180  0361  1303               	bcf	3,6	;RP1=0, select bank1
  2181  0362  00C2               	movwf	(sprintf@tmpval+3)^(0+128)
  2182  0363  1283               	bcf	3,5	;RP0=0, select bank0
  2183  0364  1303               	bcf	3,6	;RP1=0, select bank0
  2184  0365  082F               	movf	?___flmul+2,w
  2185  0366  1683               	bsf	3,5	;RP0=1, select bank1
  2186  0367  1303               	bcf	3,6	;RP1=0, select bank1
  2187  0368  00C1               	movwf	(sprintf@tmpval+2)^(0+128)
  2188  0369  1283               	bcf	3,5	;RP0=0, select bank0
  2189  036A  1303               	bcf	3,6	;RP1=0, select bank0
  2190  036B  082E               	movf	?___flmul+1,w
  2191  036C  1683               	bsf	3,5	;RP0=1, select bank1
  2192  036D  1303               	bcf	3,6	;RP1=0, select bank1
  2193  036E  00C0               	movwf	(sprintf@tmpval+1)^(0+128)
  2194  036F  1283               	bcf	3,5	;RP0=0, select bank0
  2195  0370  1303               	bcf	3,6	;RP1=0, select bank0
  2196  0371  082D               	movf	?___flmul,w
  2197  0372  1683               	bsf	3,5	;RP0=1, select bank1
  2198  0373  1303               	bcf	3,6	;RP1=0, select bank1
  2199  0374  00BF               	movwf	sprintf@tmpval^(0+128)
  2200  0375                     l3397:	
  2201                           
  2202                           ;C:\Program Files (x86)\Microchip\xc8\v2.10\pic\sources\c90\common\doprnt.c: 874:     if
      +                          (tmpval.integ < 1.0)
  2203  0375  0842               	movf	(sprintf@tmpval+3)^(0+128),w
  2204  0376  00F3               	movwf	___flge@ff1+3
  2205  0377  0841               	movf	(sprintf@tmpval+2)^(0+128),w
  2206  0378  00F2               	movwf	___flge@ff1+2
  2207  0379  0840               	movf	(sprintf@tmpval+1)^(0+128),w
  2208  037A  00F1               	movwf	___flge@ff1+1
  2209  037B  083F               	movf	sprintf@tmpval^(0+128),w
  2210  037C  00F0               	movwf	___flge@ff1
  2211  037D  303F               	movlw	63
  2212  037E  00F7               	movwf	___flge@ff2+3
  2213  037F  3080               	movlw	128
  2214  0380  00F6               	movwf	___flge@ff2+2
  2215  0381  3000               	movlw	0
  2216  0382  00F5               	movwf	___flge@ff2+1
  2217  0383  3000               	movlw	0
  2218  0384  00F4               	movwf	___flge@ff2
  2219  0385  160A  158A  26A4  120A  118A  	fcall	___flge
  2220  038A  1803               	btfsc	3,0
  2221  038B  2B8D               	goto	u5751
  2222  038C  2B8E               	goto	u5750
  2223  038D                     u5751:	
  2224  038D  2B97               	goto	l3401
  2225  038E                     u5750:	
  2226  038E                     l3399:	
  2227                           
  2228                           ;C:\Program Files (x86)\Microchip\xc8\v2.10\pic\sources\c90\common\doprnt.c: 875:      e
      +                          exp--;
  2229  038E  30FF               	movlw	255
  2230  038F  1683               	bsf	3,5	;RP0=1, select bank1
  2231  0390  1303               	bcf	3,6	;RP1=0, select bank1
  2232  0391  07BD               	addwf	sprintf@eexp^(0+128),f
  2233  0392  1803               	skipnc
  2234  0393  0ABE               	incf	(sprintf@eexp+1)^(0+128),f
  2235  0394  30FF               	movlw	255
  2236  0395  07BE               	addwf	(sprintf@eexp+1)^(0+128),f
  2237  0396  2BBA               	goto	l3405
  2238  0397                     l3401:	
  2239  0397  1683               	bsf	3,5	;RP0=1, select bank1
  2240  0398  1303               	bcf	3,6	;RP1=0, select bank1
  2241  0399  0842               	movf	(sprintf@tmpval+3)^(0+128),w
  2242  039A  00F3               	movwf	___flge@ff1+3
  2243  039B  0841               	movf	(sprintf@tmpval+2)^(0+128),w
  2244  039C  00F2               	movwf	___flge@ff1+2
  2245  039D  0840               	movf	(sprintf@tmpval+1)^(0+128),w
  2246  039E  00F1               	movwf	___flge@ff1+1
  2247  039F  083F               	movf	sprintf@tmpval^(0+128),w
  2248  03A0  00F0               	movwf	___flge@ff1
  2249  03A1  3041               	movlw	65
  2250  03A2  00F7               	movwf	___flge@ff2+3
  2251  03A3  3020               	movlw	32
  2252  03A4  00F6               	movwf	___flge@ff2+2
  2253  03A5  3000               	movlw	0
  2254  03A6  00F5               	movwf	___flge@ff2+1
  2255  03A7  3000               	movlw	0
  2256  03A8  00F4               	movwf	___flge@ff2
  2257  03A9  160A  158A  26A4  120A  118A  	fcall	___flge
  2258  03AE  1C03               	btfss	3,0
  2259  03AF  2BB1               	goto	u5761
  2260  03B0  2BB2               	goto	u5760
  2261  03B1                     u5761:	
  2262  03B1  2BBA               	goto	l3405
  2263  03B2                     u5760:	
  2264  03B2                     l3403:	
  2265                           
  2266                           ;C:\Program Files (x86)\Microchip\xc8\v2.10\pic\sources\c90\common\doprnt.c: 877:      e
      +                          exp++;
  2267  03B2  3001               	movlw	1
  2268  03B3  1683               	bsf	3,5	;RP0=1, select bank1
  2269  03B4  1303               	bcf	3,6	;RP1=0, select bank1
  2270  03B5  07BD               	addwf	sprintf@eexp^(0+128),f
  2271  03B6  1803               	skipnc
  2272  03B7  0ABE               	incf	(sprintf@eexp+1)^(0+128),f
  2273  03B8  3000               	movlw	0
  2274  03B9  07BE               	addwf	(sprintf@eexp+1)^(0+128),f
  2275  03BA                     l3405:	
  2276                           
  2277                           ;C:\Program Files (x86)\Microchip\xc8\v2.10\pic\sources\c90\common\doprnt.c: 1138:      
      +                          if(prec <= 12)
  2278  03BA  1683               	bsf	3,5	;RP0=1, select bank1
  2279  03BB  1303               	bcf	3,6	;RP1=0, select bank1
  2280  03BC  0845               	movf	(sprintf@prec+1)^(0+128),w
  2281  03BD  3A80               	xorlw	128
  2282  03BE  00FF               	movwf	btemp+1
  2283  03BF  3080               	movlw	128
  2284  03C0  027F               	subwf	btemp+1,w
  2285  03C1  1D03               	skipz
  2286  03C2  2BC5               	goto	u5775
  2287  03C3  300D               	movlw	13
  2288  03C4  0244               	subwf	sprintf@prec^(0+128),w
  2289  03C5                     u5775:	
  2290  03C5  1803               	skipnc
  2291  03C6  2BC8               	goto	u5771
  2292  03C7  2BC9               	goto	u5770
  2293  03C8                     u5771:	
  2294  03C8  2C10               	goto	l3409
  2295  03C9                     u5770:	
  2296  03C9                     l3407:	
  2297                           
  2298                           ;C:\Program Files (x86)\Microchip\xc8\v2.10\pic\sources\c90\common\doprnt.c: 1139:      
      +                           fval += fround((unsigned int)prec);
  2299  03C9  1683               	bsf	3,5	;RP0=1, select bank1
  2300  03CA  1303               	bcf	3,6	;RP1=0, select bank1
  2301  03CB  0844               	movf	sprintf@prec^(0+128),w
  2302  03CC  160A  118A  236D  120A  118A  	fcall	_fround
  2303  03D1  1283               	bcf	3,5	;RP0=0, select bank0
  2304  03D2  1303               	bcf	3,6	;RP1=0, select bank0
  2305  03D3  084A               	movf	?_fround+3,w
  2306  03D4  00DE               	movwf	___fladd@b+3
  2307  03D5  0849               	movf	?_fround+2,w
  2308  03D6  00DD               	movwf	___fladd@b+2
  2309  03D7  0848               	movf	?_fround+1,w
  2310  03D8  00DC               	movwf	___fladd@b+1
  2311  03D9  0847               	movf	?_fround,w
  2312  03DA  00DB               	movwf	___fladd@b
  2313  03DB  1683               	bsf	3,5	;RP0=1, select bank1
  2314  03DC  1303               	bcf	3,6	;RP1=0, select bank1
  2315  03DD  0849               	movf	(sprintf@fval+3)^(0+128),w
  2316  03DE  1283               	bcf	3,5	;RP0=0, select bank0
  2317  03DF  1303               	bcf	3,6	;RP1=0, select bank0
  2318  03E0  00E2               	movwf	___fladd@a+3
  2319  03E1  1683               	bsf	3,5	;RP0=1, select bank1
  2320  03E2  1303               	bcf	3,6	;RP1=0, select bank1
  2321  03E3  0848               	movf	(sprintf@fval+2)^(0+128),w
  2322  03E4  1283               	bcf	3,5	;RP0=0, select bank0
  2323  03E5  1303               	bcf	3,6	;RP1=0, select bank0
  2324  03E6  00E1               	movwf	___fladd@a+2
  2325  03E7  1683               	bsf	3,5	;RP0=1, select bank1
  2326  03E8  1303               	bcf	3,6	;RP1=0, select bank1
  2327  03E9  0847               	movf	(sprintf@fval+1)^(0+128),w
  2328  03EA  1283               	bcf	3,5	;RP0=0, select bank0
  2329  03EB  1303               	bcf	3,6	;RP1=0, select bank0
  2330  03EC  00E0               	movwf	___fladd@a+1
  2331  03ED  1683               	bsf	3,5	;RP0=1, select bank1
  2332  03EE  1303               	bcf	3,6	;RP1=0, select bank1
  2333  03EF  0846               	movf	sprintf@fval^(0+128),w
  2334  03F0  1283               	bcf	3,5	;RP0=0, select bank0
  2335  03F1  1303               	bcf	3,6	;RP1=0, select bank0
  2336  03F2  00DF               	movwf	___fladd@a
  2337  03F3  160A  118A  2578  120A  118A  	fcall	___fladd
  2338  03F8  1283               	bcf	3,5	;RP0=0, select bank0
  2339  03F9  1303               	bcf	3,6	;RP1=0, select bank0
  2340  03FA  085E               	movf	?___fladd+3,w
  2341  03FB  1683               	bsf	3,5	;RP0=1, select bank1
  2342  03FC  1303               	bcf	3,6	;RP1=0, select bank1
  2343  03FD  00C9               	movwf	(sprintf@fval+3)^(0+128)
  2344  03FE  1283               	bcf	3,5	;RP0=0, select bank0
  2345  03FF  1303               	bcf	3,6	;RP1=0, select bank0
  2346  0400  085D               	movf	?___fladd+2,w
  2347  0401  1683               	bsf	3,5	;RP0=1, select bank1
  2348  0402  1303               	bcf	3,6	;RP1=0, select bank1
  2349  0403  00C8               	movwf	(sprintf@fval+2)^(0+128)
  2350  0404  1283               	bcf	3,5	;RP0=0, select bank0
  2351  0405  1303               	bcf	3,6	;RP1=0, select bank0
  2352  0406  085C               	movf	?___fladd+1,w
  2353  0407  1683               	bsf	3,5	;RP0=1, select bank1
  2354  0408  1303               	bcf	3,6	;RP1=0, select bank1
  2355  0409  00C7               	movwf	(sprintf@fval+1)^(0+128)
  2356  040A  1283               	bcf	3,5	;RP0=0, select bank0
  2357  040B  1303               	bcf	3,6	;RP1=0, select bank0
  2358  040C  085B               	movf	?___fladd,w
  2359  040D  1683               	bsf	3,5	;RP0=1, select bank1
  2360  040E  1303               	bcf	3,6	;RP1=0, select bank1
  2361  040F  00C6               	movwf	sprintf@fval^(0+128)
  2362  0410                     l3409:	
  2363                           
  2364                           ;C:\Program Files (x86)\Microchip\xc8\v2.10\pic\sources\c90\common\doprnt.c: 1142:     i
      +                          f((eexp > 9)||(fval != 0 && (unsigned long)fval == 0 && eexp > 1)) {
  2365  0410  1683               	bsf	3,5	;RP0=1, select bank1
  2366  0411  1303               	bcf	3,6	;RP1=0, select bank1
  2367  0412  083E               	movf	(sprintf@eexp+1)^(0+128),w
  2368  0413  3A80               	xorlw	128
  2369  0414  00FF               	movwf	btemp+1
  2370  0415  3080               	movlw	128
  2371  0416  027F               	subwf	btemp+1,w
  2372  0417  1D03               	skipz
  2373  0418  2C1B               	goto	u5785
  2374  0419  300A               	movlw	10
  2375  041A  023D               	subwf	sprintf@eexp^(0+128),w
  2376  041B                     u5785:	
  2377  041B  1803               	skipnc
  2378  041C  2C1E               	goto	u5781
  2379  041D  2C1F               	goto	u5780
  2380  041E                     u5781:	
  2381  041E  2C70               	goto	l3417
  2382  041F                     u5780:	
  2383  041F                     l3411:	
  2384  041F  1683               	bsf	3,5	;RP0=1, select bank1
  2385  0420  1303               	bcf	3,6	;RP1=0, select bank1
  2386  0421  0849               	movf	(sprintf@fval+3)^(0+128),w
  2387  0422  00F3               	movwf	___fleq@ff1+3
  2388  0423  0848               	movf	(sprintf@fval+2)^(0+128),w
  2389  0424  00F2               	movwf	___fleq@ff1+2
  2390  0425  0847               	movf	(sprintf@fval+1)^(0+128),w
  2391  0426  00F1               	movwf	___fleq@ff1+1
  2392  0427  0846               	movf	sprintf@fval^(0+128),w
  2393  0428  00F0               	movwf	___fleq@ff1
  2394  0429  3000               	movlw	0
  2395  042A  00F7               	movwf	___fleq@ff2+3
  2396  042B  3000               	movlw	0
  2397  042C  00F6               	movwf	___fleq@ff2+2
  2398  042D  3000               	movlw	0
  2399  042E  00F5               	movwf	___fleq@ff2+1
  2400  042F  3000               	movlw	0
  2401  0430  00F4               	movwf	___fleq@ff2
  2402  0431  160A  158A  248B  120A  118A  	fcall	___fleq
  2403  0436  1803               	btfsc	3,0
  2404  0437  2C39               	goto	u5791
  2405  0438  2C3A               	goto	u5790
  2406  0439                     u5791:	
  2407  0439  2CE2               	goto	l3431
  2408  043A                     u5790:	
  2409  043A                     l3413:	
  2410  043A  1683               	bsf	3,5	;RP0=1, select bank1
  2411  043B  1303               	bcf	3,6	;RP1=0, select bank1
  2412  043C  0849               	movf	(sprintf@fval+3)^(0+128),w
  2413  043D  1283               	bcf	3,5	;RP0=0, select bank0
  2414  043E  1303               	bcf	3,6	;RP1=0, select bank0
  2415  043F  00DD               	movwf	___fltol@f1+3
  2416  0440  1683               	bsf	3,5	;RP0=1, select bank1
  2417  0441  1303               	bcf	3,6	;RP1=0, select bank1
  2418  0442  0848               	movf	(sprintf@fval+2)^(0+128),w
  2419  0443  1283               	bcf	3,5	;RP0=0, select bank0
  2420  0444  1303               	bcf	3,6	;RP1=0, select bank0
  2421  0445  00DC               	movwf	___fltol@f1+2
  2422  0446  1683               	bsf	3,5	;RP0=1, select bank1
  2423  0447  1303               	bcf	3,6	;RP1=0, select bank1
  2424  0448  0847               	movf	(sprintf@fval+1)^(0+128),w
  2425  0449  1283               	bcf	3,5	;RP0=0, select bank0
  2426  044A  1303               	bcf	3,6	;RP1=0, select bank0
  2427  044B  00DB               	movwf	___fltol@f1+1
  2428  044C  1683               	bsf	3,5	;RP0=1, select bank1
  2429  044D  1303               	bcf	3,6	;RP1=0, select bank1
  2430  044E  0846               	movf	sprintf@fval^(0+128),w
  2431  044F  1283               	bcf	3,5	;RP0=0, select bank0
  2432  0450  1303               	bcf	3,6	;RP1=0, select bank0
  2433  0451  00DA               	movwf	___fltol@f1
  2434  0452  120A  118A  200F  120A  118A  	fcall	___fltol
  2435  0457  1283               	bcf	3,5	;RP0=0, select bank0
  2436  0458  1303               	bcf	3,6	;RP1=0, select bank0
  2437  0459  085D               	movf	?___fltol+3,w
  2438  045A  045C               	iorwf	?___fltol+2,w
  2439  045B  045B               	iorwf	?___fltol+1,w
  2440  045C  045A               	iorwf	?___fltol,w
  2441  045D  1D03               	skipz
  2442  045E  2C60               	goto	u5801
  2443  045F  2C61               	goto	u5800
  2444  0460                     u5801:	
  2445  0460  2CE2               	goto	l3431
  2446  0461                     u5800:	
  2447  0461                     l3415:	
  2448  0461  1683               	bsf	3,5	;RP0=1, select bank1
  2449  0462  1303               	bcf	3,6	;RP1=0, select bank1
  2450  0463  083E               	movf	(sprintf@eexp+1)^(0+128),w
  2451  0464  3A80               	xorlw	128
  2452  0465  00FF               	movwf	btemp+1
  2453  0466  3080               	movlw	128
  2454  0467  027F               	subwf	btemp+1,w
  2455  0468  1D03               	skipz
  2456  0469  2C6C               	goto	u5815
  2457  046A  3002               	movlw	2
  2458  046B  023D               	subwf	sprintf@eexp^(0+128),w
  2459  046C                     u5815:	
  2460  046C  1C03               	skipc
  2461  046D  2C6F               	goto	u5811
  2462  046E  2C70               	goto	u5810
  2463  046F                     u5811:	
  2464  046F  2CE2               	goto	l3431
  2465  0470                     u5810:	
  2466  0470                     l3417:	
  2467                           
  2468                           ;C:\Program Files (x86)\Microchip\xc8\v2.10\pic\sources\c90\common\doprnt.c: 1146:      
      +                          if(tmpval.integ < 4.294967296){
  2469  0470  1683               	bsf	3,5	;RP0=1, select bank1
  2470  0471  1303               	bcf	3,6	;RP1=0, select bank1
  2471  0472  0842               	movf	(sprintf@tmpval+3)^(0+128),w
  2472  0473  00F3               	movwf	___flge@ff1+3
  2473  0474  0841               	movf	(sprintf@tmpval+2)^(0+128),w
  2474  0475  00F2               	movwf	___flge@ff1+2
  2475  0476  0840               	movf	(sprintf@tmpval+1)^(0+128),w
  2476  0477  00F1               	movwf	___flge@ff1+1
  2477  0478  083F               	movf	sprintf@tmpval^(0+128),w
  2478  0479  00F0               	movwf	___flge@ff1
  2479  047A  3040               	movlw	64
  2480  047B  00F7               	movwf	___flge@ff2+3
  2481  047C  3089               	movlw	137
  2482  047D  00F6               	movwf	___flge@ff2+2
  2483  047E  3070               	movlw	112
  2484  047F  00F5               	movwf	___flge@ff2+1
  2485  0480  305F               	movlw	95
  2486  0481  00F4               	movwf	___flge@ff2
  2487  0482  160A  158A  26A4  120A  118A  	fcall	___flge
  2488  0487  1803               	btfsc	3,0
  2489  0488  2C8A               	goto	u5821
  2490  0489  2C8B               	goto	u5820
  2491  048A                     u5821:	
  2492  048A  2C94               	goto	l3421
  2493  048B                     u5820:	
  2494  048B                     l3419:	
  2495                           
  2496                           ;C:\Program Files (x86)\Microchip\xc8\v2.10\pic\sources\c90\common\doprnt.c: 1147:      
      +                           eexp -= (sizeof dpowers/sizeof dpowers[0])-1;
  2497  048B  30F7               	movlw	247
  2498  048C  1683               	bsf	3,5	;RP0=1, select bank1
  2499  048D  1303               	bcf	3,6	;RP1=0, select bank1
  2500  048E  07BD               	addwf	sprintf@eexp^(0+128),f
  2501  048F  1803               	skipnc
  2502  0490  0ABE               	incf	(sprintf@eexp+1)^(0+128),f
  2503  0491  30FF               	movlw	255
  2504  0492  07BE               	addwf	(sprintf@eexp+1)^(0+128),f
  2505                           
  2506                           ;C:\Program Files (x86)\Microchip\xc8\v2.10\pic\sources\c90\common\doprnt.c: 1148:      
      +                          }else{
  2507  0493  2C9C               	goto	l3423
  2508  0494                     l3421:	
  2509                           
  2510                           ;C:\Program Files (x86)\Microchip\xc8\v2.10\pic\sources\c90\common\doprnt.c: 1149:      
      +                           eexp -= (sizeof dpowers/sizeof dpowers[0])-2;
  2511  0494  30F8               	movlw	248
  2512  0495  1683               	bsf	3,5	;RP0=1, select bank1
  2513  0496  1303               	bcf	3,6	;RP1=0, select bank1
  2514  0497  07BD               	addwf	sprintf@eexp^(0+128),f
  2515  0498  1803               	skipnc
  2516  0499  0ABE               	incf	(sprintf@eexp+1)^(0+128),f
  2517  049A  30FF               	movlw	255
  2518  049B  07BE               	addwf	(sprintf@eexp+1)^(0+128),f
  2519  049C                     l3423:	
  2520                           
  2521                           ;C:\Program Files (x86)\Microchip\xc8\v2.10\pic\sources\c90\common\doprnt.c: 1152:      
      +                          val = ((sizeof(double)== 3) ? _tdiv_to_l_(fval,tmpval.integ) : _div_to_l_(fval,tmpval.in
      +                          teg));
  2522  049C  083D               	movf	sprintf@eexp^(0+128),w
  2523  049D  120A  158A  2140  120A  118A  	fcall	_scale
  2524  04A2  1283               	bcf	3,5	;RP0=0, select bank0
  2525  04A3  1303               	bcf	3,6	;RP1=0, select bank0
  2526  04A4  084A               	movf	?_scale+3,w
  2527  04A5  1683               	bsf	3,5	;RP0=1, select bank1
  2528  04A6  1303               	bcf	3,6	;RP1=0, select bank1
  2529  04A7  00C2               	movwf	(sprintf@tmpval+3)^(0+128)
  2530  04A8  1283               	bcf	3,5	;RP0=0, select bank0
  2531  04A9  1303               	bcf	3,6	;RP1=0, select bank0
  2532  04AA  0849               	movf	?_scale+2,w
  2533  04AB  1683               	bsf	3,5	;RP0=1, select bank1
  2534  04AC  1303               	bcf	3,6	;RP1=0, select bank1
  2535  04AD  00C1               	movwf	(sprintf@tmpval+2)^(0+128)
  2536  04AE  1283               	bcf	3,5	;RP0=0, select bank0
  2537  04AF  1303               	bcf	3,6	;RP1=0, select bank0
  2538  04B0  0848               	movf	?_scale+1,w
  2539  04B1  1683               	bsf	3,5	;RP0=1, select bank1
  2540  04B2  1303               	bcf	3,6	;RP1=0, select bank1
  2541  04B3  00C0               	movwf	(sprintf@tmpval+1)^(0+128)
  2542  04B4  1283               	bcf	3,5	;RP0=0, select bank0
  2543  04B5  1303               	bcf	3,6	;RP1=0, select bank0
  2544  04B6  0847               	movf	?_scale,w
  2545  04B7  1683               	bsf	3,5	;RP0=1, select bank1
  2546  04B8  1303               	bcf	3,6	;RP1=0, select bank1
  2547  04B9  00BF               	movwf	sprintf@tmpval^(0+128)
  2548  04BA                     l3425:	
  2549  04BA  0849               	movf	(sprintf@fval+3)^(0+128),w
  2550  04BB  00F3               	movwf	__div_to_l_@f1+3
  2551  04BC  0848               	movf	(sprintf@fval+2)^(0+128),w
  2552  04BD  00F2               	movwf	__div_to_l_@f1+2
  2553  04BE  0847               	movf	(sprintf@fval+1)^(0+128),w
  2554  04BF  00F1               	movwf	__div_to_l_@f1+1
  2555  04C0  0846               	movf	sprintf@fval^(0+128),w
  2556  04C1  00F0               	movwf	__div_to_l_@f1
  2557  04C2  0842               	movf	(sprintf@tmpval+3)^(0+128),w
  2558  04C3  00F7               	movwf	__div_to_l_@f2+3
  2559  04C4  0841               	movf	(sprintf@tmpval+2)^(0+128),w
  2560  04C5  00F6               	movwf	__div_to_l_@f2+2
  2561  04C6  0840               	movf	(sprintf@tmpval+1)^(0+128),w
  2562  04C7  00F5               	movwf	__div_to_l_@f2+1
  2563  04C8  083F               	movf	sprintf@tmpval^(0+128),w
  2564  04C9  00F4               	movwf	__div_to_l_@f2
  2565  04CA  160A  118A  20CC  120A  118A  	fcall	__div_to_l_
  2566  04CF  0873               	movf	?__div_to_l_+3,w
  2567  04D0  1683               	bsf	3,5	;RP0=1, select bank1
  2568  04D1  1303               	bcf	3,6	;RP1=0, select bank1
  2569  04D2  00BC               	movwf	(sprintf@val+3)^(0+128)
  2570  04D3  0872               	movf	?__div_to_l_+2,w
  2571  04D4  00BB               	movwf	(sprintf@val+2)^(0+128)
  2572  04D5  0871               	movf	?__div_to_l_+1,w
  2573  04D6  00BA               	movwf	(sprintf@val+1)^(0+128)
  2574  04D7  0870               	movf	?__div_to_l_,w
  2575  04D8  00B9               	movwf	sprintf@val^(0+128)
  2576  04D9                     l3429:	
  2577                           
  2578                           ;C:\Program Files (x86)\Microchip\xc8\v2.10\pic\sources\c90\common\doprnt.c: 1155:      
      +                          fval = 0.0;
  2579  04D9  3000               	movlw	0
  2580  04DA  00C9               	movwf	(sprintf@fval+3)^(0+128)
  2581  04DB  3000               	movlw	0
  2582  04DC  00C8               	movwf	(sprintf@fval+2)^(0+128)
  2583  04DD  3000               	movlw	0
  2584  04DE  00C7               	movwf	(sprintf@fval+1)^(0+128)
  2585  04DF  3000               	movlw	0
  2586  04E0  00C6               	movwf	sprintf@fval^(0+128)
  2587                           
  2588                           ;C:\Program Files (x86)\Microchip\xc8\v2.10\pic\sources\c90\common\doprnt.c: 1156:     }
      +                           else {
  2589  04E1  2D48               	goto	l3437
  2590  04E2                     l3431:	
  2591                           
  2592                           ;C:\Program Files (x86)\Microchip\xc8\v2.10\pic\sources\c90\common\doprnt.c: 1157:      
      +                          val = (unsigned long)fval;
  2593  04E2  1683               	bsf	3,5	;RP0=1, select bank1
  2594  04E3  1303               	bcf	3,6	;RP1=0, select bank1
  2595  04E4  0849               	movf	(sprintf@fval+3)^(0+128),w
  2596  04E5  1283               	bcf	3,5	;RP0=0, select bank0
  2597  04E6  1303               	bcf	3,6	;RP1=0, select bank0
  2598  04E7  00DD               	movwf	___fltol@f1+3
  2599  04E8  1683               	bsf	3,5	;RP0=1, select bank1
  2600  04E9  1303               	bcf	3,6	;RP1=0, select bank1
  2601  04EA  0848               	movf	(sprintf@fval+2)^(0+128),w
  2602  04EB  1283               	bcf	3,5	;RP0=0, select bank0
  2603  04EC  1303               	bcf	3,6	;RP1=0, select bank0
  2604  04ED  00DC               	movwf	___fltol@f1+2
  2605  04EE  1683               	bsf	3,5	;RP0=1, select bank1
  2606  04EF  1303               	bcf	3,6	;RP1=0, select bank1
  2607  04F0  0847               	movf	(sprintf@fval+1)^(0+128),w
  2608  04F1  1283               	bcf	3,5	;RP0=0, select bank0
  2609  04F2  1303               	bcf	3,6	;RP1=0, select bank0
  2610  04F3  00DB               	movwf	___fltol@f1+1
  2611  04F4  1683               	bsf	3,5	;RP0=1, select bank1
  2612  04F5  1303               	bcf	3,6	;RP1=0, select bank1
  2613  04F6  0846               	movf	sprintf@fval^(0+128),w
  2614  04F7  1283               	bcf	3,5	;RP0=0, select bank0
  2615  04F8  1303               	bcf	3,6	;RP1=0, select bank0
  2616  04F9  00DA               	movwf	___fltol@f1
  2617  04FA  120A  118A  200F  120A  118A  	fcall	___fltol
  2618  04FF  1283               	bcf	3,5	;RP0=0, select bank0
  2619  0500  1303               	bcf	3,6	;RP1=0, select bank0
  2620  0501  085D               	movf	?___fltol+3,w
  2621  0502  1683               	bsf	3,5	;RP0=1, select bank1
  2622  0503  1303               	bcf	3,6	;RP1=0, select bank1
  2623  0504  00BC               	movwf	(sprintf@val+3)^(0+128)
  2624  0505  1283               	bcf	3,5	;RP0=0, select bank0
  2625  0506  1303               	bcf	3,6	;RP1=0, select bank0
  2626  0507  085C               	movf	?___fltol+2,w
  2627  0508  1683               	bsf	3,5	;RP0=1, select bank1
  2628  0509  1303               	bcf	3,6	;RP1=0, select bank1
  2629  050A  00BB               	movwf	(sprintf@val+2)^(0+128)
  2630  050B  1283               	bcf	3,5	;RP0=0, select bank0
  2631  050C  1303               	bcf	3,6	;RP1=0, select bank0
  2632  050D  085B               	movf	?___fltol+1,w
  2633  050E  1683               	bsf	3,5	;RP0=1, select bank1
  2634  050F  1303               	bcf	3,6	;RP1=0, select bank1
  2635  0510  00BA               	movwf	(sprintf@val+1)^(0+128)
  2636  0511  1283               	bcf	3,5	;RP0=0, select bank0
  2637  0512  1303               	bcf	3,6	;RP1=0, select bank0
  2638  0513  085A               	movf	?___fltol,w
  2639  0514  1683               	bsf	3,5	;RP0=1, select bank1
  2640  0515  1303               	bcf	3,6	;RP1=0, select bank1
  2641  0516  00B9               	movwf	sprintf@val^(0+128)
  2642  0517                     l3433:	
  2643                           
  2644                           ;C:\Program Files (x86)\Microchip\xc8\v2.10\pic\sources\c90\common\doprnt.c: 1158:      
      +                          fval -= (double)val;
  2645  0517  083C               	movf	(sprintf@val+3)^(0+128),w
  2646  0518  00F3               	movwf	___xxtofl@val+3
  2647  0519  083B               	movf	(sprintf@val+2)^(0+128),w
  2648  051A  00F2               	movwf	___xxtofl@val+2
  2649  051B  083A               	movf	(sprintf@val+1)^(0+128),w
  2650  051C  00F1               	movwf	___xxtofl@val+1
  2651  051D  0839               	movf	sprintf@val^(0+128),w
  2652  051E  00F0               	movwf	___xxtofl@val
  2653  051F  3000               	movlw	0
  2654  0520  160A  158A  2746  120A  118A  	fcall	___xxtofl
  2655  0525  0873               	movf	?___xxtofl+3,w
  2656  0526  1683               	bsf	3,5	;RP0=1, select bank1
  2657  0527  1303               	bcf	3,6	;RP1=0, select bank1
  2658  0528  00A3               	movwf	(___flsub@a+3)^(0+128)
  2659  0529  0872               	movf	?___xxtofl+2,w
  2660  052A  00A2               	movwf	(___flsub@a+2)^(0+128)
  2661  052B  0871               	movf	?___xxtofl+1,w
  2662  052C  00A1               	movwf	(___flsub@a+1)^(0+128)
  2663  052D  0870               	movf	?___xxtofl,w
  2664  052E  00A0               	movwf	___flsub@a^(0+128)
  2665  052F  0849               	movf	(sprintf@fval+3)^(0+128),w
  2666  0530  00A7               	movwf	(___flsub@b+3)^(0+128)
  2667  0531  0848               	movf	(sprintf@fval+2)^(0+128),w
  2668  0532  00A6               	movwf	(___flsub@b+2)^(0+128)
  2669  0533  0847               	movf	(sprintf@fval+1)^(0+128),w
  2670  0534  00A5               	movwf	(___flsub@b+1)^(0+128)
  2671  0535  0846               	movf	sprintf@fval^(0+128),w
  2672  0536  00A4               	movwf	___flsub@b^(0+128)
  2673  0537  160A  158A  24D9  120A  118A  	fcall	___flsub
  2674  053C  1683               	bsf	3,5	;RP0=1, select bank1
  2675  053D  1303               	bcf	3,6	;RP1=0, select bank1
  2676  053E  0823               	movf	(?___flsub+3)^(0+128),w
  2677  053F  00C9               	movwf	(sprintf@fval+3)^(0+128)
  2678  0540  0822               	movf	(?___flsub+2)^(0+128),w
  2679  0541  00C8               	movwf	(sprintf@fval+2)^(0+128)
  2680  0542  0821               	movf	(?___flsub+1)^(0+128),w
  2681  0543  00C7               	movwf	(sprintf@fval+1)^(0+128)
  2682  0544  0820               	movf	?___flsub^(0+128),w
  2683  0545  00C6               	movwf	sprintf@fval^(0+128)
  2684  0546                     l3435:	
  2685                           
  2686                           ;C:\Program Files (x86)\Microchip\xc8\v2.10\pic\sources\c90\common\doprnt.c: 1159:      
      +                          eexp = 0;
  2687  0546  01BD               	clrf	sprintf@eexp^(0+128)
  2688  0547  01BE               	clrf	(sprintf@eexp+1)^(0+128)
  2689  0548                     l3437:	
  2690                           
  2691                           ;C:\Program Files (x86)\Microchip\xc8\v2.10\pic\sources\c90\common\doprnt.c: 1162:     f
      +                          or(c = 1 ; c != (sizeof dpowers/sizeof dpowers[0]) ; c++)
  2692  0548  01CA               	clrf	sprintf@c^(0+128)
  2693  0549  0ACA               	incf	sprintf@c^(0+128),f
  2694  054A                     l3443:	
  2695                           
  2696                           ;C:\Program Files (x86)\Microchip\xc8\v2.10\pic\sources\c90\common\doprnt.c: 1163:      
      +                          if(val < dpowers[c])
  2697  054A  084A               	movf	sprintf@c^(0+128),w
  2698  054B  00AD               	movwf	??_sprintf^(0+128)
  2699  054C  3001               	movlw	1
  2700  054D                     u5835:	
  2701  054D  1003               	clrc
  2702  054E  0DAD               	rlf	??_sprintf^(0+128),f
  2703  054F  3EFF               	addlw	-1
  2704  0550  1D03               	skipz
  2705  0551  2D4D               	goto	u5835
  2706  0552  1003               	clrc
  2707  0553  0D2D               	rlf	??_sprintf^(0+128),w
  2708  0554  3E69               	addlw	low ((_dpowers-__stringbase)| (0+32768))
  2709  0555  0084               	movwf	4
  2710  0556  120A  158A  200A  120A  118A  	fcall	stringdir
  2711  055B  00AE               	movwf	(??_sprintf+1)^(0+128)
  2712  055C  120A  158A  200A  120A  118A  	fcall	stringdir
  2713  0561  00AF               	movwf	((??_sprintf+1)^(0+128)+1)
  2714  0562  120A  158A  200A  120A  118A  	fcall	stringdir
  2715  0567  00B0               	movwf	((??_sprintf+1)^(0+128)+2)
  2716  0568  120A  158A  200A  120A  118A  	fcall	stringdir
  2717  056D  00B1               	movwf	((??_sprintf+1)^(0+128)+3)
  2718  056E  0831               	movf	(??_sprintf+4)^(0+128),w
  2719  056F  023C               	subwf	(sprintf@val+3)^(0+128),w
  2720  0570  1D03               	skipz
  2721  0571  2D7C               	goto	u5845
  2722  0572  0830               	movf	(??_sprintf+3)^(0+128),w
  2723  0573  023B               	subwf	(sprintf@val+2)^(0+128),w
  2724  0574  1D03               	skipz
  2725  0575  2D7C               	goto	u5845
  2726  0576  082F               	movf	(??_sprintf+2)^(0+128),w
  2727  0577  023A               	subwf	(sprintf@val+1)^(0+128),w
  2728  0578  1D03               	skipz
  2729  0579  2D7C               	goto	u5845
  2730  057A  082E               	movf	(??_sprintf+1)^(0+128),w
  2731  057B  0239               	subwf	sprintf@val^(0+128),w
  2732  057C                     u5845:	
  2733  057C  1803               	skipnc
  2734  057D  2D7F               	goto	u5841
  2735  057E  2D80               	goto	u5840
  2736  057F                     u5841:	
  2737  057F  2D81               	goto	l3447
  2738  0580                     u5840:	
  2739  0580  2D8B               	goto	l3449
  2740  0581                     l3447:	
  2741  0581  3001               	movlw	1
  2742  0582  00AD               	movwf	??_sprintf^(0+128)
  2743  0583  082D               	movf	??_sprintf^(0+128),w
  2744  0584  07CA               	addwf	sprintf@c^(0+128),f
  2745  0585  300A               	movlw	10
  2746  0586  064A               	xorwf	sprintf@c^(0+128),w
  2747  0587  1D03               	btfss	3,2
  2748  0588  2D8A               	goto	u5851
  2749  0589  2D8B               	goto	u5850
  2750  058A                     u5851:	
  2751  058A  2D4A               	goto	l3443
  2752  058B                     u5850:	
  2753  058B                     l3449:	
  2754                           
  2755                           ;C:\Program Files (x86)\Microchip\xc8\v2.10\pic\sources\c90\common\doprnt.c: 1201:     {
      +                          ;C:\Program Files (x86)\Microchip\xc8\v2.10\pic\sources\c90\common\doprnt.c: 1214:     i
      +                          f(flag & 0x03)
  2756  058B  3003               	movlw	3
  2757  058C  0537               	andwf	sprintf@flag^(0+128),w
  2758  058D  00AD               	movwf	??_sprintf^(0+128)
  2759  058E  3000               	movlw	0
  2760  058F  0538               	andwf	(sprintf@flag+1)^(0+128),w
  2761  0590  00AE               	movwf	(??_sprintf+1)^(0+128)
  2762  0591  082D               	movf	??_sprintf^(0+128),w
  2763  0592  042E               	iorwf	(??_sprintf^(0+128)+1),w
  2764  0593  1903               	btfsc	3,2
  2765  0594  2D96               	goto	u5861
  2766  0595  2D97               	goto	u5860
  2767  0596                     u5861:	
  2768  0596  2E09               	goto	l293
  2769  0597                     u5860:	
  2770  0597                     l3451:	
  2771                           
  2772                           ;C:\Program Files (x86)\Microchip\xc8\v2.10\pic\sources\c90\common\doprnt.c: 1216:      
      +                          ((*sp++ = ('-')));
  2773  0597  302D               	movlw	45
  2774  0598  00AD               	movwf	??_sprintf^(0+128)
  2775  0599  0843               	movf	sprintf@sp^(0+128),w
  2776  059A  0084               	movwf	4
  2777  059B  082D               	movf	??_sprintf^(0+128),w
  2778  059C  1383               	bcf	3,7	;select IRP bank0
  2779  059D  0080               	movwf	0
  2780  059E                     l3453:	
  2781  059E  3001               	movlw	1
  2782  059F  00AD               	movwf	??_sprintf^(0+128)
  2783  05A0  082D               	movf	??_sprintf^(0+128),w
  2784  05A1  07C3               	addwf	sprintf@sp^(0+128),f
  2785  05A2  2E09               	goto	l293
  2786  05A3                     l3455:	
  2787                           
  2788                           ;C:\Program Files (x86)\Microchip\xc8\v2.10\pic\sources\c90\common\doprnt.c: 1226:     {
      +                          ;C:\Program Files (x86)\Microchip\xc8\v2.10\pic\sources\c90\common\doprnt.c: 1227:      
      +                          tmpval.vd = val/dpowers[c];
  2789  05A3  084A               	movf	sprintf@c^(0+128),w
  2790  05A4  00AD               	movwf	??_sprintf^(0+128)
  2791  05A5  3001               	movlw	1
  2792  05A6                     u5875:	
  2793  05A6  1003               	clrc
  2794  05A7  0DAD               	rlf	??_sprintf^(0+128),f
  2795  05A8  3EFF               	addlw	-1
  2796  05A9  1D03               	skipz
  2797  05AA  2DA6               	goto	u5875
  2798  05AB  1003               	clrc
  2799  05AC  0D2D               	rlf	??_sprintf^(0+128),w
  2800  05AD  3E69               	addlw	low ((_dpowers-__stringbase)| (0+32768))
  2801  05AE  0084               	movwf	4
  2802  05AF  120A  158A  200A  120A  118A  	fcall	stringdir
  2803  05B4  00F0               	movwf	___lldiv@divisor
  2804  05B5  120A  158A  200A  120A  118A  	fcall	stringdir
  2805  05BA  00F1               	movwf	___lldiv@divisor+1
  2806  05BB  120A  158A  200A  120A  118A  	fcall	stringdir
  2807  05C0  00F2               	movwf	___lldiv@divisor+2
  2808  05C1  120A  158A  200A  120A  118A  	fcall	stringdir
  2809  05C6  00F3               	movwf	___lldiv@divisor+3
  2810  05C7  083C               	movf	(sprintf@val+3)^(0+128),w
  2811  05C8  00F7               	movwf	___lldiv@dividend+3
  2812  05C9  083B               	movf	(sprintf@val+2)^(0+128),w
  2813  05CA  00F6               	movwf	___lldiv@dividend+2
  2814  05CB  083A               	movf	(sprintf@val+1)^(0+128),w
  2815  05CC  00F5               	movwf	___lldiv@dividend+1
  2816  05CD  0839               	movf	sprintf@val^(0+128),w
  2817  05CE  00F4               	movwf	___lldiv@dividend
  2818  05CF  160A  158A  25D6  120A  118A  	fcall	___lldiv
  2819  05D4  0873               	movf	?___lldiv+3,w
  2820  05D5  1683               	bsf	3,5	;RP0=1, select bank1
  2821  05D6  1303               	bcf	3,6	;RP1=0, select bank1
  2822  05D7  00C2               	movwf	(sprintf@tmpval+3)^(0+128)
  2823  05D8  0872               	movf	?___lldiv+2,w
  2824  05D9  00C1               	movwf	(sprintf@tmpval+2)^(0+128)
  2825  05DA  0871               	movf	?___lldiv+1,w
  2826  05DB  00C0               	movwf	(sprintf@tmpval+1)^(0+128)
  2827  05DC  0870               	movf	?___lldiv,w
  2828  05DD  00BF               	movwf	sprintf@tmpval^(0+128)
  2829  05DE                     l3457:	
  2830                           
  2831                           ;C:\Program Files (x86)\Microchip\xc8\v2.10\pic\sources\c90\common\doprnt.c: 1228:      
      +                          tmpval.vd %= 10;
  2832  05DE  3000               	movlw	0
  2833  05DF  00F3               	movwf	___llmod@divisor+3
  2834  05E0  3000               	movlw	0
  2835  05E1  00F2               	movwf	___llmod@divisor+2
  2836  05E2  3000               	movlw	0
  2837  05E3  00F1               	movwf	___llmod@divisor+1
  2838  05E4  300A               	movlw	10
  2839  05E5  00F0               	movwf	___llmod@divisor
  2840  05E6  0842               	movf	(sprintf@tmpval+3)^(0+128),w
  2841  05E7  00F7               	movwf	___llmod@dividend+3
  2842  05E8  0841               	movf	(sprintf@tmpval+2)^(0+128),w
  2843  05E9  00F6               	movwf	___llmod@dividend+2
  2844  05EA  0840               	movf	(sprintf@tmpval+1)^(0+128),w
  2845  05EB  00F5               	movwf	___llmod@dividend+1
  2846  05EC  083F               	movf	sprintf@tmpval^(0+128),w
  2847  05ED  00F4               	movwf	___llmod@dividend
  2848  05EE  160A  158A  2529  120A  118A  	fcall	___llmod
  2849  05F3  0873               	movf	?___llmod+3,w
  2850  05F4  1683               	bsf	3,5	;RP0=1, select bank1
  2851  05F5  1303               	bcf	3,6	;RP1=0, select bank1
  2852  05F6  00C2               	movwf	(sprintf@tmpval+3)^(0+128)
  2853  05F7  0872               	movf	?___llmod+2,w
  2854  05F8  00C1               	movwf	(sprintf@tmpval+2)^(0+128)
  2855  05F9  0871               	movf	?___llmod+1,w
  2856  05FA  00C0               	movwf	(sprintf@tmpval+1)^(0+128)
  2857  05FB  0870               	movf	?___llmod,w
  2858  05FC  00BF               	movwf	sprintf@tmpval^(0+128)
  2859  05FD                     l3459:	
  2860                           
  2861                           ;C:\Program Files (x86)\Microchip\xc8\v2.10\pic\sources\c90\common\doprnt.c: 1229:      
      +                          ((*sp++ = ('0' + tmpval.vd)));
  2862  05FD  083F               	movf	sprintf@tmpval^(0+128),w
  2863  05FE  3E30               	addlw	48
  2864  05FF  00AD               	movwf	??_sprintf^(0+128)
  2865  0600  0843               	movf	sprintf@sp^(0+128),w
  2866  0601  0084               	movwf	4
  2867  0602  082D               	movf	??_sprintf^(0+128),w
  2868  0603  1383               	bcf	3,7	;select IRP bank0
  2869  0604  0080               	movwf	0
  2870  0605  3001               	movlw	1
  2871  0606  00AD               	movwf	??_sprintf^(0+128)
  2872  0607  082D               	movf	??_sprintf^(0+128),w
  2873  0608  07C3               	addwf	sprintf@sp^(0+128),f
  2874  0609                     l293:	
  2875                           ;C:\Program Files (x86)\Microchip\xc8\v2.10\pic\sources\c90\common\doprnt.c: 1230:     }
      +                          ;C:\Program Files (x86)\Microchip\xc8\v2.10\pic\sources\c90\common\doprnt.c: 1232:    }
  2876                           
  2877                           
  2878                           ;C:\Program Files (x86)\Microchip\xc8\v2.10\pic\sources\c90\common\doprnt.c: 1222:    wh
      +                          ile(c--) {
  2879  0609  3001               	movlw	1
  2880  060A  02CA               	subwf	sprintf@c^(0+128),f
  2881  060B  0A4A               	incf	sprintf@c^(0+128),w
  2882  060C  1D03               	btfss	3,2
  2883  060D  2E0F               	goto	u5881
  2884  060E  2E10               	goto	u5880
  2885  060F                     u5881:	
  2886  060F  2DA3               	goto	l3455
  2887  0610                     u5880:	
  2888  0610  2E24               	goto	l3467
  2889  0611                     l3461:	
  2890                           
  2891                           ;C:\Program Files (x86)\Microchip\xc8\v2.10\pic\sources\c90\common\doprnt.c: 1234:     (
      +                          (*sp++ = ('0')));
  2892  0611  3030               	movlw	48
  2893  0612  1683               	bsf	3,5	;RP0=1, select bank1
  2894  0613  1303               	bcf	3,6	;RP1=0, select bank1
  2895  0614  00AD               	movwf	??_sprintf^(0+128)
  2896  0615  0843               	movf	sprintf@sp^(0+128),w
  2897  0616  0084               	movwf	4
  2898  0617  082D               	movf	??_sprintf^(0+128),w
  2899  0618  1383               	bcf	3,7	;select IRP bank0
  2900  0619  0080               	movwf	0
  2901  061A                     l3463:	
  2902  061A  3001               	movlw	1
  2903  061B  00AD               	movwf	??_sprintf^(0+128)
  2904  061C  082D               	movf	??_sprintf^(0+128),w
  2905  061D  07C3               	addwf	sprintf@sp^(0+128),f
  2906  061E                     l3465:	
  2907                           
  2908                           ;C:\Program Files (x86)\Microchip\xc8\v2.10\pic\sources\c90\common\doprnt.c: 1235:     e
      +                          exp--;
  2909  061E  30FF               	movlw	255
  2910  061F  07BD               	addwf	sprintf@eexp^(0+128),f
  2911  0620  1803               	skipnc
  2912  0621  0ABE               	incf	(sprintf@eexp+1)^(0+128),f
  2913  0622  30FF               	movlw	255
  2914  0623  07BE               	addwf	(sprintf@eexp+1)^(0+128),f
  2915  0624                     l3467:	
  2916                           
  2917                           ;C:\Program Files (x86)\Microchip\xc8\v2.10\pic\sources\c90\common\doprnt.c: 1233:    wh
      +                          ile(eexp > 0) {
  2918  0624  083E               	movf	(sprintf@eexp+1)^(0+128),w
  2919  0625  3A80               	xorlw	128
  2920  0626  00FF               	movwf	btemp+1
  2921  0627  3080               	movlw	128
  2922  0628  027F               	subwf	btemp+1,w
  2923  0629  1D03               	skipz
  2924  062A  2E2D               	goto	u5895
  2925  062B  3001               	movlw	1
  2926  062C  023D               	subwf	sprintf@eexp^(0+128),w
  2927  062D                     u5895:	
  2928  062D  1803               	skipnc
  2929  062E  2E30               	goto	u5891
  2930  062F  2E31               	goto	u5890
  2931  0630                     u5891:	
  2932  0630  2E11               	goto	l3461
  2933  0631                     u5890:	
  2934  0631                     l3469:	
  2935                           
  2936                           ;C:\Program Files (x86)\Microchip\xc8\v2.10\pic\sources\c90\common\doprnt.c: 1237:    if
      +                          (prec > (int)((sizeof dpowers/sizeof dpowers[0])-2))
  2937  0631  1683               	bsf	3,5	;RP0=1, select bank1
  2938  0632  1303               	bcf	3,6	;RP1=0, select bank1
  2939  0633  0845               	movf	(sprintf@prec+1)^(0+128),w
  2940  0634  3A80               	xorlw	128
  2941  0635  00FF               	movwf	btemp+1
  2942  0636  3080               	movlw	128
  2943  0637  027F               	subwf	btemp+1,w
  2944  0638  1D03               	skipz
  2945  0639  2E3C               	goto	u5905
  2946  063A  3009               	movlw	9
  2947  063B  0244               	subwf	sprintf@prec^(0+128),w
  2948  063C                     u5905:	
  2949  063C  1C03               	skipc
  2950  063D  2E3F               	goto	u5901
  2951  063E  2E40               	goto	u5900
  2952  063F                     u5901:	
  2953  063F  2E47               	goto	l3473
  2954  0640                     u5900:	
  2955  0640                     l3471:	
  2956                           
  2957                           ;C:\Program Files (x86)\Microchip\xc8\v2.10\pic\sources\c90\common\doprnt.c: 1238:     c
      +                           = (sizeof dpowers/sizeof dpowers[0])-2;
  2958  0640  3008               	movlw	8
  2959  0641  1683               	bsf	3,5	;RP0=1, select bank1
  2960  0642  1303               	bcf	3,6	;RP1=0, select bank1
  2961  0643  00AD               	movwf	??_sprintf^(0+128)
  2962  0644  082D               	movf	??_sprintf^(0+128),w
  2963  0645  00CA               	movwf	sprintf@c^(0+128)
  2964  0646  2E4D               	goto	l300
  2965  0647                     l3473:	
  2966                           
  2967                           ;C:\Program Files (x86)\Microchip\xc8\v2.10\pic\sources\c90\common\doprnt.c: 1240:     c
      +                           = (char)prec;
  2968  0647  1683               	bsf	3,5	;RP0=1, select bank1
  2969  0648  1303               	bcf	3,6	;RP1=0, select bank1
  2970  0649  0844               	movf	sprintf@prec^(0+128),w
  2971  064A  00AD               	movwf	??_sprintf^(0+128)
  2972  064B  082D               	movf	??_sprintf^(0+128),w
  2973  064C  00CA               	movwf	sprintf@c^(0+128)
  2974  064D                     l300:	
  2975                           
  2976                           ;C:\Program Files (x86)\Microchip\xc8\v2.10\pic\sources\c90\common\doprnt.c: 1241:    pr
      +                          ec -= (int)c;
  2977  064D  084A               	movf	sprintf@c^(0+128),w
  2978  064E  00AD               	movwf	??_sprintf^(0+128)
  2979  064F  01AE               	clrf	(??_sprintf^(0+128)+1)
  2980  0650  082D               	movf	??_sprintf^(0+128),w
  2981  0651  02C4               	subwf	sprintf@prec^(0+128),f
  2982  0652  082E               	movf	(??_sprintf+1)^(0+128),w
  2983  0653  1C03               	skipc
  2984  0654  03C5               	decf	(sprintf@prec+1)^(0+128),f
  2985  0655  02C5               	subwf	(sprintf@prec+1)^(0+128),f
  2986  0656                     l3475:	
  2987                           
  2988                           ;C:\Program Files (x86)\Microchip\xc8\v2.10\pic\sources\c90\common\doprnt.c: 1245:    if
      +                          (c)
  2989  0656  084A               	movf	sprintf@c^(0+128),w
  2990  0657  1903               	btfsc	3,2
  2991  0658  2E5A               	goto	u5911
  2992  0659  2E5B               	goto	u5910
  2993  065A                     u5911:	
  2994  065A  2E66               	goto	l3481
  2995  065B                     u5910:	
  2996  065B                     l3477:	
  2997                           
  2998                           ;C:\Program Files (x86)\Microchip\xc8\v2.10\pic\sources\c90\common\doprnt.c: 1247:     (
      +                          (*sp++ = ('.')));
  2999  065B  302E               	movlw	46
  3000  065C  00AD               	movwf	??_sprintf^(0+128)
  3001  065D  0843               	movf	sprintf@sp^(0+128),w
  3002  065E  0084               	movwf	4
  3003  065F  082D               	movf	??_sprintf^(0+128),w
  3004  0660  1383               	bcf	3,7	;select IRP bank0
  3005  0661  0080               	movwf	0
  3006  0662                     l3479:	
  3007  0662  3001               	movlw	1
  3008  0663  00AD               	movwf	??_sprintf^(0+128)
  3009  0664  082D               	movf	??_sprintf^(0+128),w
  3010  0665  07C3               	addwf	sprintf@sp^(0+128),f
  3011  0666                     l3481:	
  3012                           
  3013                           ;C:\Program Files (x86)\Microchip\xc8\v2.10\pic\sources\c90\common\doprnt.c: 1253:    va
      +                          l = (unsigned long)(fval * scale((signed char)c));
  3014  0666  084A               	movf	sprintf@c^(0+128),w
  3015  0667  120A  158A  2140  120A  118A  	fcall	_scale
  3016  066C  1283               	bcf	3,5	;RP0=0, select bank0
  3017  066D  1303               	bcf	3,6	;RP1=0, select bank0
  3018  066E  084A               	movf	?_scale+3,w
  3019  066F  1683               	bsf	3,5	;RP0=1, select bank1
  3020  0670  1303               	bcf	3,6	;RP1=0, select bank1
  3021  0671  00B5               	movwf	(_sprintf$918+3)^(0+128)
  3022  0672  1283               	bcf	3,5	;RP0=0, select bank0
  3023  0673  1303               	bcf	3,6	;RP1=0, select bank0
  3024  0674  0849               	movf	?_scale+2,w
  3025  0675  1683               	bsf	3,5	;RP0=1, select bank1
  3026  0676  1303               	bcf	3,6	;RP1=0, select bank1
  3027  0677  00B4               	movwf	(_sprintf$918+2)^(0+128)
  3028  0678  1283               	bcf	3,5	;RP0=0, select bank0
  3029  0679  1303               	bcf	3,6	;RP1=0, select bank0
  3030  067A  0848               	movf	?_scale+1,w
  3031  067B  1683               	bsf	3,5	;RP0=1, select bank1
  3032  067C  1303               	bcf	3,6	;RP1=0, select bank1
  3033  067D  00B3               	movwf	(_sprintf$918+1)^(0+128)
  3034  067E  1283               	bcf	3,5	;RP0=0, select bank0
  3035  067F  1303               	bcf	3,6	;RP1=0, select bank0
  3036  0680  0847               	movf	?_scale,w
  3037  0681  1683               	bsf	3,5	;RP0=1, select bank1
  3038  0682  1303               	bcf	3,6	;RP1=0, select bank1
  3039  0683  00B2               	movwf	_sprintf$918^(0+128)
  3040  0684                     l3483:	
  3041                           
  3042                           ;C:\Program Files (x86)\Microchip\xc8\v2.10\pic\sources\c90\common\doprnt.c: 1253:    va
      +                          l = (unsigned long)(fval * scale((signed char)c));
  3043  0684  0835               	movf	(_sprintf$918+3)^(0+128),w
  3044  0685  1283               	bcf	3,5	;RP0=0, select bank0
  3045  0686  1303               	bcf	3,6	;RP1=0, select bank0
  3046  0687  00B4               	movwf	___flmul@a+3
  3047  0688  1683               	bsf	3,5	;RP0=1, select bank1
  3048  0689  1303               	bcf	3,6	;RP1=0, select bank1
  3049  068A  0834               	movf	(_sprintf$918+2)^(0+128),w
  3050  068B  1283               	bcf	3,5	;RP0=0, select bank0
  3051  068C  1303               	bcf	3,6	;RP1=0, select bank0
  3052  068D  00B3               	movwf	___flmul@a+2
  3053  068E  1683               	bsf	3,5	;RP0=1, select bank1
  3054  068F  1303               	bcf	3,6	;RP1=0, select bank1
  3055  0690  0833               	movf	(_sprintf$918+1)^(0+128),w
  3056  0691  1283               	bcf	3,5	;RP0=0, select bank0
  3057  0692  1303               	bcf	3,6	;RP1=0, select bank0
  3058  0693  00B2               	movwf	___flmul@a+1
  3059  0694  1683               	bsf	3,5	;RP0=1, select bank1
  3060  0695  1303               	bcf	3,6	;RP1=0, select bank1
  3061  0696  0832               	movf	_sprintf$918^(0+128),w
  3062  0697  1283               	bcf	3,5	;RP0=0, select bank0
  3063  0698  1303               	bcf	3,6	;RP1=0, select bank0
  3064  0699  00B1               	movwf	___flmul@a
  3065  069A  1683               	bsf	3,5	;RP0=1, select bank1
  3066  069B  1303               	bcf	3,6	;RP1=0, select bank1
  3067  069C  0849               	movf	(sprintf@fval+3)^(0+128),w
  3068  069D  1283               	bcf	3,5	;RP0=0, select bank0
  3069  069E  1303               	bcf	3,6	;RP1=0, select bank0
  3070  069F  00B0               	movwf	___flmul@b+3
  3071  06A0  1683               	bsf	3,5	;RP0=1, select bank1
  3072  06A1  1303               	bcf	3,6	;RP1=0, select bank1
  3073  06A2  0848               	movf	(sprintf@fval+2)^(0+128),w
  3074  06A3  1283               	bcf	3,5	;RP0=0, select bank0
  3075  06A4  1303               	bcf	3,6	;RP1=0, select bank0
  3076  06A5  00AF               	movwf	___flmul@b+2
  3077  06A6  1683               	bsf	3,5	;RP0=1, select bank1
  3078  06A7  1303               	bcf	3,6	;RP1=0, select bank1
  3079  06A8  0847               	movf	(sprintf@fval+1)^(0+128),w
  3080  06A9  1283               	bcf	3,5	;RP0=0, select bank0
  3081  06AA  1303               	bcf	3,6	;RP1=0, select bank0
  3082  06AB  00AE               	movwf	___flmul@b+1
  3083  06AC  1683               	bsf	3,5	;RP0=1, select bank1
  3084  06AD  1303               	bcf	3,6	;RP1=0, select bank1
  3085  06AE  0846               	movf	sprintf@fval^(0+128),w
  3086  06AF  1283               	bcf	3,5	;RP0=0, select bank0
  3087  06B0  1303               	bcf	3,6	;RP1=0, select bank0
  3088  06B1  00AD               	movwf	___flmul@b
  3089  06B2  120A  158A  249F  120A  118A  	fcall	___flmul
  3090  06B7  1283               	bcf	3,5	;RP0=0, select bank0
  3091  06B8  1303               	bcf	3,6	;RP1=0, select bank0
  3092  06B9  0830               	movf	?___flmul+3,w
  3093  06BA  00DD               	movwf	___fltol@f1+3
  3094  06BB  082F               	movf	?___flmul+2,w
  3095  06BC  00DC               	movwf	___fltol@f1+2
  3096  06BD  082E               	movf	?___flmul+1,w
  3097  06BE  00DB               	movwf	___fltol@f1+1
  3098  06BF  082D               	movf	?___flmul,w
  3099  06C0  00DA               	movwf	___fltol@f1
  3100  06C1  120A  118A  200F  120A  118A  	fcall	___fltol
  3101  06C6  1283               	bcf	3,5	;RP0=0, select bank0
  3102  06C7  1303               	bcf	3,6	;RP1=0, select bank0
  3103  06C8  085D               	movf	?___fltol+3,w
  3104  06C9  1683               	bsf	3,5	;RP0=1, select bank1
  3105  06CA  1303               	bcf	3,6	;RP1=0, select bank1
  3106  06CB  00BC               	movwf	(sprintf@val+3)^(0+128)
  3107  06CC  1283               	bcf	3,5	;RP0=0, select bank0
  3108  06CD  1303               	bcf	3,6	;RP1=0, select bank0
  3109  06CE  085C               	movf	?___fltol+2,w
  3110  06CF  1683               	bsf	3,5	;RP0=1, select bank1
  3111  06D0  1303               	bcf	3,6	;RP1=0, select bank1
  3112  06D1  00BB               	movwf	(sprintf@val+2)^(0+128)
  3113  06D2  1283               	bcf	3,5	;RP0=0, select bank0
  3114  06D3  1303               	bcf	3,6	;RP1=0, select bank0
  3115  06D4  085B               	movf	?___fltol+1,w
  3116  06D5  1683               	bsf	3,5	;RP0=1, select bank1
  3117  06D6  1303               	bcf	3,6	;RP1=0, select bank1
  3118  06D7  00BA               	movwf	(sprintf@val+1)^(0+128)
  3119  06D8  1283               	bcf	3,5	;RP0=0, select bank0
  3120  06D9  1303               	bcf	3,6	;RP1=0, select bank0
  3121  06DA  085A               	movf	?___fltol,w
  3122  06DB  1683               	bsf	3,5	;RP0=1, select bank1
  3123  06DC  1303               	bcf	3,6	;RP1=0, select bank1
  3124  06DD  00B9               	movwf	sprintf@val^(0+128)
  3125                           
  3126                           ;C:\Program Files (x86)\Microchip\xc8\v2.10\pic\sources\c90\common\doprnt.c: 1254:    wh
      +                          ile(c--) {
  3127  06DE  2F80               	goto	l3493
  3128  06DF                     l3485:	
  3129                           
  3130                           ;C:\Program Files (x86)\Microchip\xc8\v2.10\pic\sources\c90\common\doprnt.c: 1255:     t
      +                          mpval.vd = val/dpowers[c];
  3131  06DF  084A               	movf	sprintf@c^(0+128),w
  3132  06E0  00AD               	movwf	??_sprintf^(0+128)
  3133  06E1  3001               	movlw	1
  3134  06E2                     u5925:	
  3135  06E2  1003               	clrc
  3136  06E3  0DAD               	rlf	??_sprintf^(0+128),f
  3137  06E4  3EFF               	addlw	-1
  3138  06E5  1D03               	skipz
  3139  06E6  2EE2               	goto	u5925
  3140  06E7  1003               	clrc
  3141  06E8  0D2D               	rlf	??_sprintf^(0+128),w
  3142  06E9  3E69               	addlw	low ((_dpowers-__stringbase)| (0+32768))
  3143  06EA  0084               	movwf	4
  3144  06EB  120A  158A  200A  120A  118A  	fcall	stringdir
  3145  06F0  00F0               	movwf	___lldiv@divisor
  3146  06F1  120A  158A  200A  120A  118A  	fcall	stringdir
  3147  06F6  00F1               	movwf	___lldiv@divisor+1
  3148  06F7  120A  158A  200A  120A  118A  	fcall	stringdir
  3149  06FC  00F2               	movwf	___lldiv@divisor+2
  3150  06FD  120A  158A  200A  120A  118A  	fcall	stringdir
  3151  0702  00F3               	movwf	___lldiv@divisor+3
  3152  0703  083C               	movf	(sprintf@val+3)^(0+128),w
  3153  0704  00F7               	movwf	___lldiv@dividend+3
  3154  0705  083B               	movf	(sprintf@val+2)^(0+128),w
  3155  0706  00F6               	movwf	___lldiv@dividend+2
  3156  0707  083A               	movf	(sprintf@val+1)^(0+128),w
  3157  0708  00F5               	movwf	___lldiv@dividend+1
  3158  0709  0839               	movf	sprintf@val^(0+128),w
  3159  070A  00F4               	movwf	___lldiv@dividend
  3160  070B  160A  158A  25D6  120A  118A  	fcall	___lldiv
  3161  0710  0873               	movf	?___lldiv+3,w
  3162  0711  1683               	bsf	3,5	;RP0=1, select bank1
  3163  0712  1303               	bcf	3,6	;RP1=0, select bank1
  3164  0713  00C2               	movwf	(sprintf@tmpval+3)^(0+128)
  3165  0714  0872               	movf	?___lldiv+2,w
  3166  0715  00C1               	movwf	(sprintf@tmpval+2)^(0+128)
  3167  0716  0871               	movf	?___lldiv+1,w
  3168  0717  00C0               	movwf	(sprintf@tmpval+1)^(0+128)
  3169  0718  0870               	movf	?___lldiv,w
  3170  0719  00BF               	movwf	sprintf@tmpval^(0+128)
  3171  071A                     l3487:	
  3172                           
  3173                           ;C:\Program Files (x86)\Microchip\xc8\v2.10\pic\sources\c90\common\doprnt.c: 1256:     t
      +                          mpval.vd %= 10;
  3174  071A  3000               	movlw	0
  3175  071B  00F3               	movwf	___llmod@divisor+3
  3176  071C  3000               	movlw	0
  3177  071D  00F2               	movwf	___llmod@divisor+2
  3178  071E  3000               	movlw	0
  3179  071F  00F1               	movwf	___llmod@divisor+1
  3180  0720  300A               	movlw	10
  3181  0721  00F0               	movwf	___llmod@divisor
  3182  0722  0842               	movf	(sprintf@tmpval+3)^(0+128),w
  3183  0723  00F7               	movwf	___llmod@dividend+3
  3184  0724  0841               	movf	(sprintf@tmpval+2)^(0+128),w
  3185  0725  00F6               	movwf	___llmod@dividend+2
  3186  0726  0840               	movf	(sprintf@tmpval+1)^(0+128),w
  3187  0727  00F5               	movwf	___llmod@dividend+1
  3188  0728  083F               	movf	sprintf@tmpval^(0+128),w
  3189  0729  00F4               	movwf	___llmod@dividend
  3190  072A  160A  158A  2529  120A  118A  	fcall	___llmod
  3191  072F  0873               	movf	?___llmod+3,w
  3192  0730  1683               	bsf	3,5	;RP0=1, select bank1
  3193  0731  1303               	bcf	3,6	;RP1=0, select bank1
  3194  0732  00C2               	movwf	(sprintf@tmpval+3)^(0+128)
  3195  0733  0872               	movf	?___llmod+2,w
  3196  0734  00C1               	movwf	(sprintf@tmpval+2)^(0+128)
  3197  0735  0871               	movf	?___llmod+1,w
  3198  0736  00C0               	movwf	(sprintf@tmpval+1)^(0+128)
  3199  0737  0870               	movf	?___llmod,w
  3200  0738  00BF               	movwf	sprintf@tmpval^(0+128)
  3201  0739                     l3489:	
  3202                           
  3203                           ;C:\Program Files (x86)\Microchip\xc8\v2.10\pic\sources\c90\common\doprnt.c: 1257:     (
      +                          (*sp++ = ('0' + tmpval.vd)));
  3204  0739  083F               	movf	sprintf@tmpval^(0+128),w
  3205  073A  3E30               	addlw	48
  3206  073B  00AD               	movwf	??_sprintf^(0+128)
  3207  073C  0843               	movf	sprintf@sp^(0+128),w
  3208  073D  0084               	movwf	4
  3209  073E  082D               	movf	??_sprintf^(0+128),w
  3210  073F  1383               	bcf	3,7	;select IRP bank0
  3211  0740  0080               	movwf	0
  3212  0741  3001               	movlw	1
  3213  0742  00AD               	movwf	??_sprintf^(0+128)
  3214  0743  082D               	movf	??_sprintf^(0+128),w
  3215  0744  07C3               	addwf	sprintf@sp^(0+128),f
  3216  0745                     l3491:	
  3217                           
  3218                           ;C:\Program Files (x86)\Microchip\xc8\v2.10\pic\sources\c90\common\doprnt.c: 1258:     v
      +                          al %= dpowers[c];
  3219  0745  084A               	movf	sprintf@c^(0+128),w
  3220  0746  00AD               	movwf	??_sprintf^(0+128)
  3221  0747  3001               	movlw	1
  3222  0748                     u5935:	
  3223  0748  1003               	clrc
  3224  0749  0DAD               	rlf	??_sprintf^(0+128),f
  3225  074A  3EFF               	addlw	-1
  3226  074B  1D03               	skipz
  3227  074C  2F48               	goto	u5935
  3228  074D  1003               	clrc
  3229  074E  0D2D               	rlf	??_sprintf^(0+128),w
  3230  074F  3E69               	addlw	low ((_dpowers-__stringbase)| (0+32768))
  3231  0750  0084               	movwf	4
  3232  0751  120A  158A  200A  120A  118A  	fcall	stringdir
  3233  0756  00F0               	movwf	___llmod@divisor
  3234  0757  120A  158A  200A  120A  118A  	fcall	stringdir
  3235  075C  00F1               	movwf	___llmod@divisor+1
  3236  075D  120A  158A  200A  120A  118A  	fcall	stringdir
  3237  0762  00F2               	movwf	___llmod@divisor+2
  3238  0763  120A  158A  200A  120A  118A  	fcall	stringdir
  3239  0768  00F3               	movwf	___llmod@divisor+3
  3240  0769  083C               	movf	(sprintf@val+3)^(0+128),w
  3241  076A  00F7               	movwf	___llmod@dividend+3
  3242  076B  083B               	movf	(sprintf@val+2)^(0+128),w
  3243  076C  00F6               	movwf	___llmod@dividend+2
  3244  076D  083A               	movf	(sprintf@val+1)^(0+128),w
  3245  076E  00F5               	movwf	___llmod@dividend+1
  3246  076F  0839               	movf	sprintf@val^(0+128),w
  3247  0770  00F4               	movwf	___llmod@dividend
  3248  0771  160A  158A  2529  120A  118A  	fcall	___llmod
  3249  0776  0873               	movf	?___llmod+3,w
  3250  0777  1683               	bsf	3,5	;RP0=1, select bank1
  3251  0778  1303               	bcf	3,6	;RP1=0, select bank1
  3252  0779  00BC               	movwf	(sprintf@val+3)^(0+128)
  3253  077A  0872               	movf	?___llmod+2,w
  3254  077B  00BB               	movwf	(sprintf@val+2)^(0+128)
  3255  077C  0871               	movf	?___llmod+1,w
  3256  077D  00BA               	movwf	(sprintf@val+1)^(0+128)
  3257  077E  0870               	movf	?___llmod,w
  3258  077F  00B9               	movwf	sprintf@val^(0+128)
  3259  0780                     l3493:	
  3260                           
  3261                           ;C:\Program Files (x86)\Microchip\xc8\v2.10\pic\sources\c90\common\doprnt.c: 1254:    wh
      +                          ile(c--) {
  3262  0780  3001               	movlw	1
  3263  0781  02CA               	subwf	sprintf@c^(0+128),f
  3264  0782  0A4A               	incf	sprintf@c^(0+128),w
  3265  0783  1D03               	btfss	3,2
  3266  0784  2F86               	goto	u5941
  3267  0785  2F87               	goto	u5940
  3268  0786                     u5941:	
  3269  0786  2EDF               	goto	l3485
  3270  0787                     u5940:	
  3271  0787  2F99               	goto	l3501
  3272  0788                     l3495:	
  3273                           
  3274                           ;C:\Program Files (x86)\Microchip\xc8\v2.10\pic\sources\c90\common\doprnt.c: 1262:     (
      +                          (*sp++ = ('0')));
  3275  0788  3030               	movlw	48
  3276  0789  00AD               	movwf	??_sprintf^(0+128)
  3277  078A  0843               	movf	sprintf@sp^(0+128),w
  3278  078B  0084               	movwf	4
  3279  078C  082D               	movf	??_sprintf^(0+128),w
  3280  078D  1383               	bcf	3,7	;select IRP bank0
  3281  078E  0080               	movwf	0
  3282  078F                     l3497:	
  3283  078F  3001               	movlw	1
  3284  0790  00AD               	movwf	??_sprintf^(0+128)
  3285  0791  082D               	movf	??_sprintf^(0+128),w
  3286  0792  07C3               	addwf	sprintf@sp^(0+128),f
  3287  0793                     l3499:	
  3288                           
  3289                           ;C:\Program Files (x86)\Microchip\xc8\v2.10\pic\sources\c90\common\doprnt.c: 1263:     p
      +                          rec--;
  3290  0793  30FF               	movlw	255
  3291  0794  07C4               	addwf	sprintf@prec^(0+128),f
  3292  0795  1803               	skipnc
  3293  0796  0AC5               	incf	(sprintf@prec+1)^(0+128),f
  3294  0797  30FF               	movlw	255
  3295  0798  07C5               	addwf	(sprintf@prec+1)^(0+128),f
  3296  0799                     l3501:	
  3297                           
  3298                           ;C:\Program Files (x86)\Microchip\xc8\v2.10\pic\sources\c90\common\doprnt.c: 1261:    wh
      +                          ile(prec) {
  3299  0799  0844               	movf	sprintf@prec^(0+128),w
  3300  079A  0445               	iorwf	(sprintf@prec+1)^(0+128),w
  3301  079B  1D03               	btfss	3,2
  3302  079C  2F9E               	goto	u5951
  3303  079D  2F9F               	goto	u5950
  3304  079E                     u5951:	
  3305  079E  2F88               	goto	l3495
  3306  079F                     u5950:	
  3307  079F  2FE5               	goto	l3521
  3308  07A0                     l3503:	
  3309                           
  3310                           ;C:\Program Files (x86)\Microchip\xc8\v2.10\pic\sources\c90\common\doprnt.c: 1316:   if(
      +                          prec == 0 && val == 0)
  3311  07A0  0844               	movf	sprintf@prec^(0+128),w
  3312  07A1  0445               	iorwf	(sprintf@prec+1)^(0+128),w
  3313  07A2  1D03               	btfss	3,2
  3314  07A3  2FA5               	goto	u5961
  3315  07A4  2FA6               	goto	u5960
  3316  07A5                     u5961:	
  3317  07A5  2FB4               	goto	l308
  3318  07A6                     u5960:	
  3319  07A6                     l3505:	
  3320  07A6  083C               	movf	(sprintf@val+3)^(0+128),w
  3321  07A7  043B               	iorwf	(sprintf@val+2)^(0+128),w
  3322  07A8  043A               	iorwf	(sprintf@val+1)^(0+128),w
  3323  07A9  0439               	iorwf	sprintf@val^(0+128),w
  3324  07AA  1D03               	skipz
  3325  07AB  2FAD               	goto	u5971
  3326  07AC  2FAE               	goto	u5970
  3327  07AD                     u5971:	
  3328  07AD  2FB4               	goto	l308
  3329  07AE                     u5970:	
  3330  07AE                     l3507:	
  3331                           
  3332                           ;C:\Program Files (x86)\Microchip\xc8\v2.10\pic\sources\c90\common\doprnt.c: 1317:    pr
      +                          ec++;
  3333  07AE  3001               	movlw	1
  3334  07AF  07C4               	addwf	sprintf@prec^(0+128),f
  3335  07B0  1803               	skipnc
  3336  07B1  0AC5               	incf	(sprintf@prec+1)^(0+128),f
  3337  07B2  3000               	movlw	0
  3338  07B3  07C5               	addwf	(sprintf@prec+1)^(0+128),f
  3339  07B4                     l308:	
  3340                           
  3341                           ;C:\Program Files (x86)\Microchip\xc8\v2.10\pic\sources\c90\common\doprnt.c: 1365:   if(
      +                          c < prec)
  3342  07B4  0845               	movf	(sprintf@prec+1)^(0+128),w
  3343  07B5  3A80               	xorlw	128
  3344  07B6  3C80               	sublw	128
  3345  07B7  1D03               	skipz
  3346  07B8  2FBB               	goto	u5985
  3347  07B9  0844               	movf	sprintf@prec^(0+128),w
  3348  07BA  024A               	subwf	sprintf@c^(0+128),w
  3349  07BB                     u5985:	
  3350  07BB  1803               	skipnc
  3351  07BC  2FBE               	goto	u5981
  3352  07BD  2FBF               	goto	u5980
  3353  07BE                     u5981:	
  3354  07BE  2FC0               	goto	l3511
  3355  07BF                     u5980:	
  3356  07BF                     l3509:	
  3357  07BF  2FCF               	goto	l3515
  3358  07C0                     l3511:	
  3359  07C0  1683               	bsf	3,5	;RP0=1, select bank1
  3360  07C1  1303               	bcf	3,6	;RP1=0, select bank1
  3361  07C2  0845               	movf	(sprintf@prec+1)^(0+128),w
  3362  07C3  3A80               	xorlw	128
  3363  07C4  00AD               	movwf	??_sprintf^(0+128)
  3364  07C5  3080               	movlw	128
  3365  07C6  022D               	subwf	??_sprintf^(0+128),w
  3366  07C7  1D03               	skipz
  3367  07C8  2FCB               	goto	u5995
  3368  07C9  084A               	movf	sprintf@c^(0+128),w
  3369  07CA  0244               	subwf	sprintf@prec^(0+128),w
  3370  07CB                     u5995:	
  3371  07CB  1803               	skipnc
  3372  07CC  2FCE               	goto	u5991
  3373  07CD  2FCF               	goto	u5990
  3374  07CE                     u5991:	
  3375  07CE  2FCF               	goto	l3515
  3376  07CF                     u5990:	
  3377  07CF                     l3513:	
  3378  07CF                     l3515:	
  3379                           
  3380                           ;C:\Program Files (x86)\Microchip\xc8\v2.10\pic\sources\c90\common\doprnt.c: 1448:   {;C
      +                          :\Program Files (x86)\Microchip\xc8\v2.10\pic\sources\c90\common\doprnt.c: 1464:    if(f
      +                          lag & 0x03)
  3381  07CF  3003               	movlw	3
  3382  07D0  1683               	bsf	3,5	;RP0=1, select bank1
  3383  07D1  1303               	bcf	3,6	;RP1=0, select bank1
  3384  07D2  0537               	andwf	sprintf@flag^(0+128),w
  3385  07D3  00AD               	movwf	??_sprintf^(0+128)
  3386  07D4  3000               	movlw	0
  3387  07D5  0538               	andwf	(sprintf@flag+1)^(0+128),w
  3388  07D6  00AE               	movwf	(??_sprintf+1)^(0+128)
  3389  07D7  082D               	movf	??_sprintf^(0+128),w
  3390  07D8  042E               	iorwf	(??_sprintf^(0+128)+1),w
  3391  07D9  1903               	btfsc	3,2
  3392  07DA  2FDC               	goto	u6001
  3393  07DB  2FDD               	goto	u6000
  3394  07DC                     u6001:	
  3395  07DC  2FE5               	goto	l3521
  3396  07DD                     u6000:	
  3397  07DD                     l3517:	
  3398                           
  3399                           ;C:\Program Files (x86)\Microchip\xc8\v2.10\pic\sources\c90\common\doprnt.c: 1465:     (
      +                          (*sp++ = ('-')));
  3400  07DD  302D               	movlw	45
  3401  07DE  00AD               	movwf	??_sprintf^(0+128)
  3402  07DF  0843               	movf	sprintf@sp^(0+128),w
  3403  07E0  0084               	movwf	4
  3404  07E1  082D               	movf	??_sprintf^(0+128),w
  3405  07E2  1383               	bcf	3,7	;select IRP bank0
  3406  07E3  0080               	movwf	0
  3407  07E4  29D7               	goto	l3333
  3408  07E5                     l3521:	
  3409                           
  3410                           ;C:\Program Files (x86)\Microchip\xc8\v2.10\pic\sources\c90\common\doprnt.c: 553:  while
      +                          ((c = *f++)) {
  3411  07E5  3001               	movlw	1
  3412  07E6  07A8               	addwf	sprintf@f^(0+128),f
  3413  07E7  30FF               	movlw	-1
  3414  07E8  0728               	addwf	sprintf@f^(0+128),w
  3415  07E9  0084               	movwf	4
  3416  07EA  120A  158A  200A  120A  118A  	fcall	stringdir
  3417  07EF  00AD               	movwf	??_sprintf^(0+128)
  3418  07F0  082D               	movf	??_sprintf^(0+128),w
  3419  07F1  00CA               	movwf	sprintf@c^(0+128)
  3420  07F2  084A               	movf	sprintf@c^(0+128),w
  3421  07F3  1D03               	btfss	3,2
  3422  07F4  2FF6               	goto	u6011
  3423  07F5  2FF7               	goto	u6010
  3424  07F6                     u6011:	
  3425  07F6  29CA               	goto	l3329
  3426  07F7                     u6010:	
  3427  07F7                     l3523:	
  3428                           
  3429                           ;C:\Program Files (x86)\Microchip\xc8\v2.10\pic\sources\c90\common\doprnt.c: 1564:  *sp 
      +                          = 0;
  3430  07F7  0843               	movf	sprintf@sp^(0+128),w
  3431  07F8  0084               	movwf	4
  3432  07F9  1383               	bcf	3,7	;select IRP bank0
  3433  07FA  0180               	clrf	0
  3434  07FB                     l314:	
  3435  07FB  0008               	return
  3436  07FC                     __end_of_sprintf:	
  3437                           
  3438                           	psect	text2
  3439  0940                     __ptext2:	
  3440 ;; *************** function _scale *****************
  3441 ;; Defined at:
  3442 ;;		line 433 in file "C:\Program Files (x86)\Microchip\xc8\v2.10\pic\sources\c90\common\doprnt.c"
  3443 ;; Parameters:    Size  Location     Type
  3444 ;;  scl             1    wreg     char 
  3445 ;; Auto vars:     Size  Location     Type
  3446 ;;  scl             1   57[BANK0 ] char 
  3447 ;; Return value:  Size  Location     Type
  3448 ;;                  4   39[BANK0 ] char 
  3449 ;; Registers used:
  3450 ;;		wreg, fsr0l, fsr0h, status,2, status,0, btemp+1, pclath, cstack
  3451 ;; Tracked objects:
  3452 ;;		On entry : 0/0
  3453 ;;		On exit  : 0/0
  3454 ;;		Unchanged: 0/0
  3455 ;; Data sizes:     COMMON   BANK0   BANK1   BANK3   BANK2
  3456 ;;      Params:         0       4       0       0       0
  3457 ;;      Locals:         0       5       0       0       0
  3458 ;;      Temps:          0      10       0       0       0
  3459 ;;      Totals:         0      19       0       0       0
  3460 ;;Total ram usage:       19 bytes
  3461 ;; Hardware stack levels used:    1
  3462 ;; Hardware stack levels required when called:    2
  3463 ;; This function calls:
  3464 ;;		___awdiv
  3465 ;;		___awmod
  3466 ;;		___flmul
  3467 ;; This function is called by:
  3468 ;;		_sprintf
  3469 ;; This function uses a non-reentrant model
  3470 ;;
  3471                           
  3472                           
  3473                           ;psect for function _scale
  3474  0940                     _scale:	
  3475                           
  3476                           ;incstack = 0
  3477                           ; Regs used in _scale: [wreg-fsr0h+status,2+status,0+btemp+1+pclath+cstack]
  3478                           ;scale@scl stored from wreg
  3479  0940  1283               	bcf	3,5	;RP0=0, select bank0
  3480  0941  1303               	bcf	3,6	;RP1=0, select bank0
  3481  0942  00D9               	movwf	scale@scl
  3482  0943                     l2773:	
  3483                           
  3484                           ;C:\Program Files (x86)\Microchip\xc8\v2.10\pic\sources\c90\common\doprnt.c: 433: scale(
      +                          signed char scl);C:\Program Files (x86)\Microchip\xc8\v2.10\pic\sources\c90\common\doprn
      +                          t.c: 434: {;C:\Program Files (x86)\Microchip\xc8\v2.10\pic\sources\c90\common\doprnt.c: 
      +                          436:  if(scl < 0) {
  3485  0943  1FD9               	btfss	scale@scl,7
  3486  0944  2946               	goto	u4361
  3487  0945  2947               	goto	u4360
  3488  0946                     u4361:	
  3489  0946  2AF4               	goto	l2795
  3490  0947                     u4360:	
  3491  0947                     l2775:	
  3492                           
  3493                           ;C:\Program Files (x86)\Microchip\xc8\v2.10\pic\sources\c90\common\doprnt.c: 437:   scl 
      +                          = -scl;
  3494  0947  09D9               	comf	scale@scl,f
  3495  0948  0AD9               	incf	scale@scl,f
  3496  0949                     l2777:	
  3497                           
  3498                           ;C:\Program Files (x86)\Microchip\xc8\v2.10\pic\sources\c90\common\doprnt.c: 438:   if(s
      +                          cl>=110)
  3499  0949  0859               	movf	scale@scl,w
  3500  094A  3A80               	xorlw	128
  3501  094B  3E12               	addlw	-238
  3502  094C  1C03               	skipc
  3503  094D  294F               	goto	u4371
  3504  094E  2950               	goto	u4370
  3505  094F                     u4371:	
  3506  094F  2A38               	goto	l2785
  3507  0950                     u4370:	
  3508  0950                     l2779:	
  3509                           
  3510                           ;C:\Program Files (x86)\Microchip\xc8\v2.10\pic\sources\c90\common\doprnt.c: 439:    ret
      +                          urn _npowers_[(unsigned char)(scl/100+18)] * _npowers_[(unsigned char)((scl%100)/10+9)] 
      +                          * _npowers_[(unsigned char)(scl%10)];
  3511  0950  300A               	movlw	10
  3512  0951  00F7               	movwf	___awdiv@divisor
  3513  0952  3000               	movlw	0
  3514  0953  00F8               	movwf	___awdiv@divisor+1
  3515  0954  0859               	movf	scale@scl,w
  3516  0955  00F2               	movwf	___awmod@dividend
  3517  0956  01F3               	clrf	___awmod@dividend+1
  3518  0957  1BF2               	btfsc	___awmod@dividend,7
  3519  0958  03F3               	decf	___awmod@dividend+1,f
  3520  0959  3064               	movlw	100
  3521  095A  00F0               	movwf	___awmod@divisor
  3522  095B  3000               	movlw	0
  3523  095C  00F1               	movwf	___awmod@divisor+1
  3524  095D  160A  158A  257D  120A  158A  	fcall	___awmod
  3525  0962  0871               	movf	?___awmod+1,w
  3526  0963  00FA               	movwf	___awdiv@dividend+1
  3527  0964  0870               	movf	?___awmod,w
  3528  0965  00F9               	movwf	___awdiv@dividend
  3529  0966  120A  158A  20D7  120A  158A  	fcall	___awdiv
  3530  096B  0877               	movf	?___awdiv,w
  3531  096C  1283               	bcf	3,5	;RP0=0, select bank0
  3532  096D  1303               	bcf	3,6	;RP1=0, select bank0
  3533  096E  00CB               	movwf	??_scale
  3534  096F  3001               	movlw	1
  3535  0970                     u4385:	
  3536  0970  1003               	clrc
  3537  0971  0DCB               	rlf	??_scale,f
  3538  0972  3EFF               	addlw	-1
  3539  0973  1D03               	skipz
  3540  0974  2970               	goto	u4385
  3541  0975  1003               	clrc
  3542  0976  0D4B               	rlf	??_scale,w
  3543  0977  3E59               	addlw	low (((__npowers_-__stringbase)| (0+32768)+36))
  3544  0978  0084               	movwf	4
  3545  0979  120A  158A  200A  120A  158A  	fcall	stringdir
  3546  097E  00CC               	movwf	??_scale+1
  3547  097F  120A  158A  200A  120A  158A  	fcall	stringdir
  3548  0984  00CD               	movwf	??_scale+2
  3549  0985  120A  158A  200A  120A  158A  	fcall	stringdir
  3550  098A  00CE               	movwf	??_scale+3
  3551  098B  120A  158A  200A  120A  158A  	fcall	stringdir
  3552  0990  00CF               	movwf	??_scale+4
  3553  0991  084F               	movf	??_scale+4,w
  3554  0992  00B0               	movwf	___flmul@b+3
  3555  0993  084E               	movf	??_scale+3,w
  3556  0994  00AF               	movwf	___flmul@b+2
  3557  0995  084D               	movf	??_scale+2,w
  3558  0996  00AE               	movwf	___flmul@b+1
  3559  0997  084C               	movf	??_scale+1,w
  3560  0998  00AD               	movwf	___flmul@b
  3561  0999  3064               	movlw	100
  3562  099A  00F7               	movwf	___awdiv@divisor
  3563  099B  3000               	movlw	0
  3564  099C  00F8               	movwf	___awdiv@divisor+1
  3565  099D  0859               	movf	scale@scl,w
  3566  099E  00F9               	movwf	___awdiv@dividend
  3567  099F  01FA               	clrf	___awdiv@dividend+1
  3568  09A0  1BF9               	btfsc	___awdiv@dividend,7
  3569  09A1  03FA               	decf	___awdiv@dividend+1,f
  3570  09A2  120A  158A  20D7  120A  158A  	fcall	___awdiv
  3571  09A7  0877               	movf	?___awdiv,w
  3572  09A8  1283               	bcf	3,5	;RP0=0, select bank0
  3573  09A9  1303               	bcf	3,6	;RP1=0, select bank0
  3574  09AA  00D0               	movwf	??_scale+5
  3575  09AB  3001               	movlw	1
  3576  09AC                     u4395:	
  3577  09AC  1003               	clrc
  3578  09AD  0DD0               	rlf	??_scale+5,f
  3579  09AE  3EFF               	addlw	-1
  3580  09AF  1D03               	skipz
  3581  09B0  29AC               	goto	u4395
  3582  09B1  1003               	clrc
  3583  09B2  0D50               	rlf	??_scale+5,w
  3584  09B3  3E7D               	addlw	low (((__npowers_-__stringbase)| (0+32768)+72))
  3585  09B4  0084               	movwf	4
  3586  09B5  120A  158A  200A  120A  158A  	fcall	stringdir
  3587  09BA  00D1               	movwf	??_scale+6
  3588  09BB  120A  158A  200A  120A  158A  	fcall	stringdir
  3589  09C0  00D2               	movwf	??_scale+7
  3590  09C1  120A  158A  200A  120A  158A  	fcall	stringdir
  3591  09C6  00D3               	movwf	??_scale+8
  3592  09C7  120A  158A  200A  120A  158A  	fcall	stringdir
  3593  09CC  00D4               	movwf	??_scale+9
  3594  09CD  0854               	movf	??_scale+9,w
  3595  09CE  00B4               	movwf	___flmul@a+3
  3596  09CF  0853               	movf	??_scale+8,w
  3597  09D0  00B3               	movwf	___flmul@a+2
  3598  09D1  0852               	movf	??_scale+7,w
  3599  09D2  00B2               	movwf	___flmul@a+1
  3600  09D3  0851               	movf	??_scale+6,w
  3601  09D4  00B1               	movwf	___flmul@a
  3602  09D5  120A  158A  249F  120A  158A  	fcall	___flmul
  3603  09DA  1283               	bcf	3,5	;RP0=0, select bank0
  3604  09DB  1303               	bcf	3,6	;RP1=0, select bank0
  3605  09DC  0830               	movf	?___flmul+3,w
  3606  09DD  00D8               	movwf	_scale$917+3
  3607  09DE  082F               	movf	?___flmul+2,w
  3608  09DF  00D7               	movwf	_scale$917+2
  3609  09E0  082E               	movf	?___flmul+1,w
  3610  09E1  00D6               	movwf	_scale$917+1
  3611  09E2  082D               	movf	?___flmul,w
  3612  09E3  00D5               	movwf	_scale$917
  3613                           
  3614                           ;C:\Program Files (x86)\Microchip\xc8\v2.10\pic\sources\c90\common\doprnt.c: 439:    ret
      +                          urn _npowers_[(unsigned char)(scl/100+18)] * _npowers_[(unsigned char)((scl%100)/10+9)] 
      +                          * _npowers_[(unsigned char)(scl%10)];
  3615  09E4  300A               	movlw	10
  3616  09E5  00F0               	movwf	___awmod@divisor
  3617  09E6  3000               	movlw	0
  3618  09E7  00F1               	movwf	___awmod@divisor+1
  3619  09E8  0859               	movf	scale@scl,w
  3620  09E9  00F2               	movwf	___awmod@dividend
  3621  09EA  01F3               	clrf	___awmod@dividend+1
  3622  09EB  1BF2               	btfsc	___awmod@dividend,7
  3623  09EC  03F3               	decf	___awmod@dividend+1,f
  3624  09ED  160A  158A  257D  120A  158A  	fcall	___awmod
  3625  09F2  0870               	movf	?___awmod,w
  3626  09F3  1283               	bcf	3,5	;RP0=0, select bank0
  3627  09F4  1303               	bcf	3,6	;RP1=0, select bank0
  3628  09F5  00CB               	movwf	??_scale
  3629  09F6  3001               	movlw	1
  3630  09F7                     u4405:	
  3631  09F7  1003               	clrc
  3632  09F8  0DCB               	rlf	??_scale,f
  3633  09F9  3EFF               	addlw	-1
  3634  09FA  1D03               	skipz
  3635  09FB  29F7               	goto	u4405
  3636  09FC  1003               	clrc
  3637  09FD  0D4B               	rlf	??_scale,w
  3638  09FE  3E35               	addlw	low ((__npowers_-__stringbase)| (0+32768))
  3639  09FF  0084               	movwf	4
  3640  0A00  120A  158A  200A  120A  158A  	fcall	stringdir
  3641  0A05  00CC               	movwf	??_scale+1
  3642  0A06  120A  158A  200A  120A  158A  	fcall	stringdir
  3643  0A0B  00CD               	movwf	??_scale+2
  3644  0A0C  120A  158A  200A  120A  158A  	fcall	stringdir
  3645  0A11  00CE               	movwf	??_scale+3
  3646  0A12  120A  158A  200A  120A  158A  	fcall	stringdir
  3647  0A17  00CF               	movwf	??_scale+4
  3648  0A18  084F               	movf	??_scale+4,w
  3649  0A19  00B0               	movwf	___flmul@b+3
  3650  0A1A  084E               	movf	??_scale+3,w
  3651  0A1B  00AF               	movwf	___flmul@b+2
  3652  0A1C  084D               	movf	??_scale+2,w
  3653  0A1D  00AE               	movwf	___flmul@b+1
  3654  0A1E  084C               	movf	??_scale+1,w
  3655  0A1F  00AD               	movwf	___flmul@b
  3656  0A20  0858               	movf	_scale$917+3,w
  3657  0A21  00B4               	movwf	___flmul@a+3
  3658  0A22  0857               	movf	_scale$917+2,w
  3659  0A23  00B3               	movwf	___flmul@a+2
  3660  0A24  0856               	movf	_scale$917+1,w
  3661  0A25  00B2               	movwf	___flmul@a+1
  3662  0A26  0855               	movf	_scale$917,w
  3663  0A27  00B1               	movwf	___flmul@a
  3664  0A28  120A  158A  249F  120A  158A  	fcall	___flmul
  3665  0A2D  1283               	bcf	3,5	;RP0=0, select bank0
  3666  0A2E  1303               	bcf	3,6	;RP1=0, select bank0
  3667  0A2F  0830               	movf	?___flmul+3,w
  3668  0A30  00CA               	movwf	?_scale+3
  3669  0A31  082F               	movf	?___flmul+2,w
  3670  0A32  00C9               	movwf	?_scale+2
  3671  0A33  082E               	movf	?___flmul+1,w
  3672  0A34  00C8               	movwf	?_scale+1
  3673  0A35  082D               	movf	?___flmul,w
  3674  0A36  00C7               	movwf	?_scale
  3675  0A37  2C9E               	goto	l248
  3676  0A38                     l2785:	
  3677  0A38  0859               	movf	scale@scl,w
  3678  0A39  3A80               	xorlw	128
  3679  0A3A  3E75               	addlw	-139
  3680  0A3B  1C03               	skipc
  3681  0A3C  2A3E               	goto	u4411
  3682  0A3D  2A3F               	goto	u4410
  3683  0A3E                     u4411:	
  3684  0A3E  2AC7               	goto	l2791
  3685  0A3F                     u4410:	
  3686  0A3F                     l2787:	
  3687                           
  3688                           ;C:\Program Files (x86)\Microchip\xc8\v2.10\pic\sources\c90\common\doprnt.c: 441:    ret
      +                          urn _npowers_[(unsigned char)(scl/10+9)] * _npowers_[(unsigned char)(scl%10)];
  3689  0A3F  300A               	movlw	10
  3690  0A40  00F0               	movwf	___awmod@divisor
  3691  0A41  3000               	movlw	0
  3692  0A42  00F1               	movwf	___awmod@divisor+1
  3693  0A43  0859               	movf	scale@scl,w
  3694  0A44  00F2               	movwf	___awmod@dividend
  3695  0A45  01F3               	clrf	___awmod@dividend+1
  3696  0A46  1BF2               	btfsc	___awmod@dividend,7
  3697  0A47  03F3               	decf	___awmod@dividend+1,f
  3698  0A48  160A  158A  257D  120A  158A  	fcall	___awmod
  3699  0A4D  0870               	movf	?___awmod,w
  3700  0A4E  1283               	bcf	3,5	;RP0=0, select bank0
  3701  0A4F  1303               	bcf	3,6	;RP1=0, select bank0
  3702  0A50  00CB               	movwf	??_scale
  3703  0A51  3001               	movlw	1
  3704  0A52                     u4425:	
  3705  0A52  1003               	clrc
  3706  0A53  0DCB               	rlf	??_scale,f
  3707  0A54  3EFF               	addlw	-1
  3708  0A55  1D03               	skipz
  3709  0A56  2A52               	goto	u4425
  3710  0A57  1003               	clrc
  3711  0A58  0D4B               	rlf	??_scale,w
  3712  0A59  3E35               	addlw	low ((__npowers_-__stringbase)| (0+32768))
  3713  0A5A  0084               	movwf	4
  3714  0A5B  120A  158A  200A  120A  158A  	fcall	stringdir
  3715  0A60  00CC               	movwf	??_scale+1
  3716  0A61  120A  158A  200A  120A  158A  	fcall	stringdir
  3717  0A66  00CD               	movwf	??_scale+2
  3718  0A67  120A  158A  200A  120A  158A  	fcall	stringdir
  3719  0A6C  00CE               	movwf	??_scale+3
  3720  0A6D  120A  158A  200A  120A  158A  	fcall	stringdir
  3721  0A72  00CF               	movwf	??_scale+4
  3722  0A73  084F               	movf	??_scale+4,w
  3723  0A74  00B0               	movwf	___flmul@b+3
  3724  0A75  084E               	movf	??_scale+3,w
  3725  0A76  00AF               	movwf	___flmul@b+2
  3726  0A77  084D               	movf	??_scale+2,w
  3727  0A78  00AE               	movwf	___flmul@b+1
  3728  0A79  084C               	movf	??_scale+1,w
  3729  0A7A  00AD               	movwf	___flmul@b
  3730  0A7B  300A               	movlw	10
  3731  0A7C  00F7               	movwf	___awdiv@divisor
  3732  0A7D  3000               	movlw	0
  3733  0A7E  00F8               	movwf	___awdiv@divisor+1
  3734  0A7F  0859               	movf	scale@scl,w
  3735  0A80  00F9               	movwf	___awdiv@dividend
  3736  0A81  01FA               	clrf	___awdiv@dividend+1
  3737  0A82  1BF9               	btfsc	___awdiv@dividend,7
  3738  0A83  03FA               	decf	___awdiv@dividend+1,f
  3739  0A84  120A  158A  20D7  120A  158A  	fcall	___awdiv
  3740  0A89  0877               	movf	?___awdiv,w
  3741  0A8A  1283               	bcf	3,5	;RP0=0, select bank0
  3742  0A8B  1303               	bcf	3,6	;RP1=0, select bank0
  3743  0A8C  00D0               	movwf	??_scale+5
  3744  0A8D  3001               	movlw	1
  3745  0A8E                     u4435:	
  3746  0A8E  1003               	clrc
  3747  0A8F  0DD0               	rlf	??_scale+5,f
  3748  0A90  3EFF               	addlw	-1
  3749  0A91  1D03               	skipz
  3750  0A92  2A8E               	goto	u4435
  3751  0A93  1003               	clrc
  3752  0A94  0D50               	rlf	??_scale+5,w
  3753  0A95  3E59               	addlw	low (((__npowers_-__stringbase)| (0+32768)+36))
  3754  0A96  0084               	movwf	4
  3755  0A97  120A  158A  200A  120A  158A  	fcall	stringdir
  3756  0A9C  00D1               	movwf	??_scale+6
  3757  0A9D  120A  158A  200A  120A  158A  	fcall	stringdir
  3758  0AA2  00D2               	movwf	??_scale+7
  3759  0AA3  120A  158A  200A  120A  158A  	fcall	stringdir
  3760  0AA8  00D3               	movwf	??_scale+8
  3761  0AA9  120A  158A  200A  120A  158A  	fcall	stringdir
  3762  0AAE  00D4               	movwf	??_scale+9
  3763  0AAF  0854               	movf	??_scale+9,w
  3764  0AB0  00B4               	movwf	___flmul@a+3
  3765  0AB1  0853               	movf	??_scale+8,w
  3766  0AB2  00B3               	movwf	___flmul@a+2
  3767  0AB3  0852               	movf	??_scale+7,w
  3768  0AB4  00B2               	movwf	___flmul@a+1
  3769  0AB5  0851               	movf	??_scale+6,w
  3770  0AB6  00B1               	movwf	___flmul@a
  3771  0AB7  120A  158A  249F  120A  158A  	fcall	___flmul
  3772  0ABC  1283               	bcf	3,5	;RP0=0, select bank0
  3773  0ABD  1303               	bcf	3,6	;RP1=0, select bank0
  3774  0ABE  0830               	movf	?___flmul+3,w
  3775  0ABF  00CA               	movwf	?_scale+3
  3776  0AC0  082F               	movf	?___flmul+2,w
  3777  0AC1  00C9               	movwf	?_scale+2
  3778  0AC2  082E               	movf	?___flmul+1,w
  3779  0AC3  00C8               	movwf	?_scale+1
  3780  0AC4  082D               	movf	?___flmul,w
  3781  0AC5  00C7               	movwf	?_scale
  3782  0AC6  2C9E               	goto	l248
  3783  0AC7                     l2791:	
  3784                           
  3785                           ;C:\Program Files (x86)\Microchip\xc8\v2.10\pic\sources\c90\common\doprnt.c: 442:   retu
      +                          rn _npowers_[(unsigned char)scl];
  3786  0AC7  0859               	movf	scale@scl,w
  3787  0AC8  00CB               	movwf	??_scale
  3788  0AC9  3001               	movlw	1
  3789  0ACA                     u4445:	
  3790  0ACA  1003               	clrc
  3791  0ACB  0DCB               	rlf	??_scale,f
  3792  0ACC  3EFF               	addlw	-1
  3793  0ACD  1D03               	skipz
  3794  0ACE  2ACA               	goto	u4445
  3795  0ACF  1003               	clrc
  3796  0AD0  0D4B               	rlf	??_scale,w
  3797  0AD1  3E35               	addlw	low ((__npowers_-__stringbase)| (0+32768))
  3798  0AD2  0084               	movwf	4
  3799  0AD3  120A  158A  200A  120A  158A  	fcall	stringdir
  3800  0AD8  00CC               	movwf	??_scale+1
  3801  0AD9  120A  158A  200A  120A  158A  	fcall	stringdir
  3802  0ADE  00CD               	movwf	??_scale+2
  3803  0ADF  120A  158A  200A  120A  158A  	fcall	stringdir
  3804  0AE4  00CE               	movwf	??_scale+3
  3805  0AE5  120A  158A  200A  120A  158A  	fcall	stringdir
  3806  0AEA  00CF               	movwf	??_scale+4
  3807  0AEB  084F               	movf	??_scale+4,w
  3808  0AEC  00CA               	movwf	?_scale+3
  3809  0AED  084E               	movf	??_scale+3,w
  3810  0AEE  00C9               	movwf	?_scale+2
  3811  0AEF  084D               	movf	??_scale+2,w
  3812  0AF0  00C8               	movwf	?_scale+1
  3813  0AF1  084C               	movf	??_scale+1,w
  3814  0AF2  00C7               	movwf	?_scale
  3815  0AF3  2C9E               	goto	l248
  3816  0AF4                     l2795:	
  3817                           
  3818                           ;C:\Program Files (x86)\Microchip\xc8\v2.10\pic\sources\c90\common\doprnt.c: 444:  if(sc
      +                          l>=110)
  3819  0AF4  0859               	movf	scale@scl,w
  3820  0AF5  3A80               	xorlw	128
  3821  0AF6  3E12               	addlw	-238
  3822  0AF7  1C03               	skipc
  3823  0AF8  2AFA               	goto	u4451
  3824  0AF9  2AFB               	goto	u4450
  3825  0AFA                     u4451:	
  3826  0AFA  2BE3               	goto	l2803
  3827  0AFB                     u4450:	
  3828  0AFB                     l2797:	
  3829                           
  3830                           ;C:\Program Files (x86)\Microchip\xc8\v2.10\pic\sources\c90\common\doprnt.c: 445:   retu
      +                          rn _powers_[(unsigned char)(scl/100+18)] * _powers_[(unsigned char)((scl%100)/10+9)] * _
      +                          powers_[(unsigned char)(scl%10)];
  3831  0AFB  300A               	movlw	10
  3832  0AFC  00F7               	movwf	___awdiv@divisor
  3833  0AFD  3000               	movlw	0
  3834  0AFE  00F8               	movwf	___awdiv@divisor+1
  3835  0AFF  0859               	movf	scale@scl,w
  3836  0B00  00F2               	movwf	___awmod@dividend
  3837  0B01  01F3               	clrf	___awmod@dividend+1
  3838  0B02  1BF2               	btfsc	___awmod@dividend,7
  3839  0B03  03F3               	decf	___awmod@dividend+1,f
  3840  0B04  3064               	movlw	100
  3841  0B05  00F0               	movwf	___awmod@divisor
  3842  0B06  3000               	movlw	0
  3843  0B07  00F1               	movwf	___awmod@divisor+1
  3844  0B08  160A  158A  257D  120A  158A  	fcall	___awmod
  3845  0B0D  0871               	movf	?___awmod+1,w
  3846  0B0E  00FA               	movwf	___awdiv@dividend+1
  3847  0B0F  0870               	movf	?___awmod,w
  3848  0B10  00F9               	movwf	___awdiv@dividend
  3849  0B11  120A  158A  20D7  120A  158A  	fcall	___awdiv
  3850  0B16  0877               	movf	?___awdiv,w
  3851  0B17  1283               	bcf	3,5	;RP0=0, select bank0
  3852  0B18  1303               	bcf	3,6	;RP1=0, select bank0
  3853  0B19  00CB               	movwf	??_scale
  3854  0B1A  3001               	movlw	1
  3855  0B1B                     u4465:	
  3856  0B1B  1003               	clrc
  3857  0B1C  0DCB               	rlf	??_scale,f
  3858  0B1D  3EFF               	addlw	-1
  3859  0B1E  1D03               	skipz
  3860  0B1F  2B1B               	goto	u4465
  3861  0B20  1003               	clrc
  3862  0B21  0D4B               	rlf	??_scale,w
  3863  0B22  3E25               	addlw	low (((__powers_-__stringbase)| (0+32768)+36))
  3864  0B23  0084               	movwf	4
  3865  0B24  120A  158A  200A  120A  158A  	fcall	stringdir
  3866  0B29  00CC               	movwf	??_scale+1
  3867  0B2A  120A  158A  200A  120A  158A  	fcall	stringdir
  3868  0B2F  00CD               	movwf	??_scale+2
  3869  0B30  120A  158A  200A  120A  158A  	fcall	stringdir
  3870  0B35  00CE               	movwf	??_scale+3
  3871  0B36  120A  158A  200A  120A  158A  	fcall	stringdir
  3872  0B3B  00CF               	movwf	??_scale+4
  3873  0B3C  084F               	movf	??_scale+4,w
  3874  0B3D  00B0               	movwf	___flmul@b+3
  3875  0B3E  084E               	movf	??_scale+3,w
  3876  0B3F  00AF               	movwf	___flmul@b+2
  3877  0B40  084D               	movf	??_scale+2,w
  3878  0B41  00AE               	movwf	___flmul@b+1
  3879  0B42  084C               	movf	??_scale+1,w
  3880  0B43  00AD               	movwf	___flmul@b
  3881  0B44  3064               	movlw	100
  3882  0B45  00F7               	movwf	___awdiv@divisor
  3883  0B46  3000               	movlw	0
  3884  0B47  00F8               	movwf	___awdiv@divisor+1
  3885  0B48  0859               	movf	scale@scl,w
  3886  0B49  00F9               	movwf	___awdiv@dividend
  3887  0B4A  01FA               	clrf	___awdiv@dividend+1
  3888  0B4B  1BF9               	btfsc	___awdiv@dividend,7
  3889  0B4C  03FA               	decf	___awdiv@dividend+1,f
  3890  0B4D  120A  158A  20D7  120A  158A  	fcall	___awdiv
  3891  0B52  0877               	movf	?___awdiv,w
  3892  0B53  1283               	bcf	3,5	;RP0=0, select bank0
  3893  0B54  1303               	bcf	3,6	;RP1=0, select bank0
  3894  0B55  00D0               	movwf	??_scale+5
  3895  0B56  3001               	movlw	1
  3896  0B57                     u4475:	
  3897  0B57  1003               	clrc
  3898  0B58  0DD0               	rlf	??_scale+5,f
  3899  0B59  3EFF               	addlw	-1
  3900  0B5A  1D03               	skipz
  3901  0B5B  2B57               	goto	u4475
  3902  0B5C  1003               	clrc
  3903  0B5D  0D50               	rlf	??_scale+5,w
  3904  0B5E  3E49               	addlw	low (((__powers_-__stringbase)| (0+32768)+72))
  3905  0B5F  0084               	movwf	4
  3906  0B60  120A  158A  200A  120A  158A  	fcall	stringdir
  3907  0B65  00D1               	movwf	??_scale+6
  3908  0B66  120A  158A  200A  120A  158A  	fcall	stringdir
  3909  0B6B  00D2               	movwf	??_scale+7
  3910  0B6C  120A  158A  200A  120A  158A  	fcall	stringdir
  3911  0B71  00D3               	movwf	??_scale+8
  3912  0B72  120A  158A  200A  120A  158A  	fcall	stringdir
  3913  0B77  00D4               	movwf	??_scale+9
  3914  0B78  0854               	movf	??_scale+9,w
  3915  0B79  00B4               	movwf	___flmul@a+3
  3916  0B7A  0853               	movf	??_scale+8,w
  3917  0B7B  00B3               	movwf	___flmul@a+2
  3918  0B7C  0852               	movf	??_scale+7,w
  3919  0B7D  00B2               	movwf	___flmul@a+1
  3920  0B7E  0851               	movf	??_scale+6,w
  3921  0B7F  00B1               	movwf	___flmul@a
  3922  0B80  120A  158A  249F  120A  158A  	fcall	___flmul
  3923  0B85  1283               	bcf	3,5	;RP0=0, select bank0
  3924  0B86  1303               	bcf	3,6	;RP1=0, select bank0
  3925  0B87  0830               	movf	?___flmul+3,w
  3926  0B88  00D8               	movwf	_scale$917+3
  3927  0B89  082F               	movf	?___flmul+2,w
  3928  0B8A  00D7               	movwf	_scale$917+2
  3929  0B8B  082E               	movf	?___flmul+1,w
  3930  0B8C  00D6               	movwf	_scale$917+1
  3931  0B8D  082D               	movf	?___flmul,w
  3932  0B8E  00D5               	movwf	_scale$917
  3933                           
  3934                           ;C:\Program Files (x86)\Microchip\xc8\v2.10\pic\sources\c90\common\doprnt.c: 445:   retu
      +                          rn _powers_[(unsigned char)(scl/100+18)] * _powers_[(unsigned char)((scl%100)/10+9)] * _
      +                          powers_[(unsigned char)(scl%10)];
  3935  0B8F  300A               	movlw	10
  3936  0B90  00F0               	movwf	___awmod@divisor
  3937  0B91  3000               	movlw	0
  3938  0B92  00F1               	movwf	___awmod@divisor+1
  3939  0B93  0859               	movf	scale@scl,w
  3940  0B94  00F2               	movwf	___awmod@dividend
  3941  0B95  01F3               	clrf	___awmod@dividend+1
  3942  0B96  1BF2               	btfsc	___awmod@dividend,7
  3943  0B97  03F3               	decf	___awmod@dividend+1,f
  3944  0B98  160A  158A  257D  120A  158A  	fcall	___awmod
  3945  0B9D  0870               	movf	?___awmod,w
  3946  0B9E  1283               	bcf	3,5	;RP0=0, select bank0
  3947  0B9F  1303               	bcf	3,6	;RP1=0, select bank0
  3948  0BA0  00CB               	movwf	??_scale
  3949  0BA1  3001               	movlw	1
  3950  0BA2                     u4485:	
  3951  0BA2  1003               	clrc
  3952  0BA3  0DCB               	rlf	??_scale,f
  3953  0BA4  3EFF               	addlw	-1
  3954  0BA5  1D03               	skipz
  3955  0BA6  2BA2               	goto	u4485
  3956  0BA7  1003               	clrc
  3957  0BA8  0D4B               	rlf	??_scale,w
  3958  0BA9  3E01               	addlw	low ((__powers_-__stringbase)| (0+32768))
  3959  0BAA  0084               	movwf	4
  3960  0BAB  120A  158A  200A  120A  158A  	fcall	stringdir
  3961  0BB0  00CC               	movwf	??_scale+1
  3962  0BB1  120A  158A  200A  120A  158A  	fcall	stringdir
  3963  0BB6  00CD               	movwf	??_scale+2
  3964  0BB7  120A  158A  200A  120A  158A  	fcall	stringdir
  3965  0BBC  00CE               	movwf	??_scale+3
  3966  0BBD  120A  158A  200A  120A  158A  	fcall	stringdir
  3967  0BC2  00CF               	movwf	??_scale+4
  3968  0BC3  084F               	movf	??_scale+4,w
  3969  0BC4  00B0               	movwf	___flmul@b+3
  3970  0BC5  084E               	movf	??_scale+3,w
  3971  0BC6  00AF               	movwf	___flmul@b+2
  3972  0BC7  084D               	movf	??_scale+2,w
  3973  0BC8  00AE               	movwf	___flmul@b+1
  3974  0BC9  084C               	movf	??_scale+1,w
  3975  0BCA  00AD               	movwf	___flmul@b
  3976  0BCB  0858               	movf	_scale$917+3,w
  3977  0BCC  00B4               	movwf	___flmul@a+3
  3978  0BCD  0857               	movf	_scale$917+2,w
  3979  0BCE  00B3               	movwf	___flmul@a+2
  3980  0BCF  0856               	movf	_scale$917+1,w
  3981  0BD0  00B2               	movwf	___flmul@a+1
  3982  0BD1  0855               	movf	_scale$917,w
  3983  0BD2  00B1               	movwf	___flmul@a
  3984  0BD3  120A  158A  249F  120A  158A  	fcall	___flmul
  3985  0BD8  1283               	bcf	3,5	;RP0=0, select bank0
  3986  0BD9  1303               	bcf	3,6	;RP1=0, select bank0
  3987  0BDA  0830               	movf	?___flmul+3,w
  3988  0BDB  00CA               	movwf	?_scale+3
  3989  0BDC  082F               	movf	?___flmul+2,w
  3990  0BDD  00C9               	movwf	?_scale+2
  3991  0BDE  082E               	movf	?___flmul+1,w
  3992  0BDF  00C8               	movwf	?_scale+1
  3993  0BE0  082D               	movf	?___flmul,w
  3994  0BE1  00C7               	movwf	?_scale
  3995  0BE2  2C9E               	goto	l248
  3996  0BE3                     l2803:	
  3997  0BE3  0859               	movf	scale@scl,w
  3998  0BE4  3A80               	xorlw	128
  3999  0BE5  3E75               	addlw	-139
  4000  0BE6  1C03               	skipc
  4001  0BE7  2BE9               	goto	u4491
  4002  0BE8  2BEA               	goto	u4490
  4003  0BE9                     u4491:	
  4004  0BE9  2C72               	goto	l2809
  4005  0BEA                     u4490:	
  4006  0BEA                     l2805:	
  4007                           
  4008                           ;C:\Program Files (x86)\Microchip\xc8\v2.10\pic\sources\c90\common\doprnt.c: 447:   retu
      +                          rn _powers_[(unsigned char)(scl/10+9)] * _powers_[(unsigned char)(scl%10)];
  4009  0BEA  300A               	movlw	10
  4010  0BEB  00F0               	movwf	___awmod@divisor
  4011  0BEC  3000               	movlw	0
  4012  0BED  00F1               	movwf	___awmod@divisor+1
  4013  0BEE  0859               	movf	scale@scl,w
  4014  0BEF  00F2               	movwf	___awmod@dividend
  4015  0BF0  01F3               	clrf	___awmod@dividend+1
  4016  0BF1  1BF2               	btfsc	___awmod@dividend,7
  4017  0BF2  03F3               	decf	___awmod@dividend+1,f
  4018  0BF3  160A  158A  257D  120A  158A  	fcall	___awmod
  4019  0BF8  0870               	movf	?___awmod,w
  4020  0BF9  1283               	bcf	3,5	;RP0=0, select bank0
  4021  0BFA  1303               	bcf	3,6	;RP1=0, select bank0
  4022  0BFB  00CB               	movwf	??_scale
  4023  0BFC  3001               	movlw	1
  4024  0BFD                     u4505:	
  4025  0BFD  1003               	clrc
  4026  0BFE  0DCB               	rlf	??_scale,f
  4027  0BFF  3EFF               	addlw	-1
  4028  0C00  1D03               	skipz
  4029  0C01  2BFD               	goto	u4505
  4030  0C02  1003               	clrc
  4031  0C03  0D4B               	rlf	??_scale,w
  4032  0C04  3E01               	addlw	low ((__powers_-__stringbase)| (0+32768))
  4033  0C05  0084               	movwf	4
  4034  0C06  120A  158A  200A  120A  158A  	fcall	stringdir
  4035  0C0B  00CC               	movwf	??_scale+1
  4036  0C0C  120A  158A  200A  120A  158A  	fcall	stringdir
  4037  0C11  00CD               	movwf	??_scale+2
  4038  0C12  120A  158A  200A  120A  158A  	fcall	stringdir
  4039  0C17  00CE               	movwf	??_scale+3
  4040  0C18  120A  158A  200A  120A  158A  	fcall	stringdir
  4041  0C1D  00CF               	movwf	??_scale+4
  4042  0C1E  084F               	movf	??_scale+4,w
  4043  0C1F  00B0               	movwf	___flmul@b+3
  4044  0C20  084E               	movf	??_scale+3,w
  4045  0C21  00AF               	movwf	___flmul@b+2
  4046  0C22  084D               	movf	??_scale+2,w
  4047  0C23  00AE               	movwf	___flmul@b+1
  4048  0C24  084C               	movf	??_scale+1,w
  4049  0C25  00AD               	movwf	___flmul@b
  4050  0C26  300A               	movlw	10
  4051  0C27  00F7               	movwf	___awdiv@divisor
  4052  0C28  3000               	movlw	0
  4053  0C29  00F8               	movwf	___awdiv@divisor+1
  4054  0C2A  0859               	movf	scale@scl,w
  4055  0C2B  00F9               	movwf	___awdiv@dividend
  4056  0C2C  01FA               	clrf	___awdiv@dividend+1
  4057  0C2D  1BF9               	btfsc	___awdiv@dividend,7
  4058  0C2E  03FA               	decf	___awdiv@dividend+1,f
  4059  0C2F  120A  158A  20D7  120A  158A  	fcall	___awdiv
  4060  0C34  0877               	movf	?___awdiv,w
  4061  0C35  1283               	bcf	3,5	;RP0=0, select bank0
  4062  0C36  1303               	bcf	3,6	;RP1=0, select bank0
  4063  0C37  00D0               	movwf	??_scale+5
  4064  0C38  3001               	movlw	1
  4065  0C39                     u4515:	
  4066  0C39  1003               	clrc
  4067  0C3A  0DD0               	rlf	??_scale+5,f
  4068  0C3B  3EFF               	addlw	-1
  4069  0C3C  1D03               	skipz
  4070  0C3D  2C39               	goto	u4515
  4071  0C3E  1003               	clrc
  4072  0C3F  0D50               	rlf	??_scale+5,w
  4073  0C40  3E25               	addlw	low (((__powers_-__stringbase)| (0+32768)+36))
  4074  0C41  0084               	movwf	4
  4075  0C42  120A  158A  200A  120A  158A  	fcall	stringdir
  4076  0C47  00D1               	movwf	??_scale+6
  4077  0C48  120A  158A  200A  120A  158A  	fcall	stringdir
  4078  0C4D  00D2               	movwf	??_scale+7
  4079  0C4E  120A  158A  200A  120A  158A  	fcall	stringdir
  4080  0C53  00D3               	movwf	??_scale+8
  4081  0C54  120A  158A  200A  120A  158A  	fcall	stringdir
  4082  0C59  00D4               	movwf	??_scale+9
  4083  0C5A  0854               	movf	??_scale+9,w
  4084  0C5B  00B4               	movwf	___flmul@a+3
  4085  0C5C  0853               	movf	??_scale+8,w
  4086  0C5D  00B3               	movwf	___flmul@a+2
  4087  0C5E  0852               	movf	??_scale+7,w
  4088  0C5F  00B2               	movwf	___flmul@a+1
  4089  0C60  0851               	movf	??_scale+6,w
  4090  0C61  00B1               	movwf	___flmul@a
  4091  0C62  120A  158A  249F  120A  158A  	fcall	___flmul
  4092  0C67  1283               	bcf	3,5	;RP0=0, select bank0
  4093  0C68  1303               	bcf	3,6	;RP1=0, select bank0
  4094  0C69  0830               	movf	?___flmul+3,w
  4095  0C6A  00CA               	movwf	?_scale+3
  4096  0C6B  082F               	movf	?___flmul+2,w
  4097  0C6C  00C9               	movwf	?_scale+2
  4098  0C6D  082E               	movf	?___flmul+1,w
  4099  0C6E  00C8               	movwf	?_scale+1
  4100  0C6F  082D               	movf	?___flmul,w
  4101  0C70  00C7               	movwf	?_scale
  4102  0C71  2C9E               	goto	l248
  4103  0C72                     l2809:	
  4104                           
  4105                           ;C:\Program Files (x86)\Microchip\xc8\v2.10\pic\sources\c90\common\doprnt.c: 448:  retur
      +                          n _powers_[(unsigned char)scl];
  4106  0C72  0859               	movf	scale@scl,w
  4107  0C73  00CB               	movwf	??_scale
  4108  0C74  3001               	movlw	1
  4109  0C75                     u4525:	
  4110  0C75  1003               	clrc
  4111  0C76  0DCB               	rlf	??_scale,f
  4112  0C77  3EFF               	addlw	-1
  4113  0C78  1D03               	skipz
  4114  0C79  2C75               	goto	u4525
  4115  0C7A  1003               	clrc
  4116  0C7B  0D4B               	rlf	??_scale,w
  4117  0C7C  3E01               	addlw	low ((__powers_-__stringbase)| (0+32768))
  4118  0C7D  0084               	movwf	4
  4119  0C7E  120A  158A  200A  120A  158A  	fcall	stringdir
  4120  0C83  00CC               	movwf	??_scale+1
  4121  0C84  120A  158A  200A  120A  158A  	fcall	stringdir
  4122  0C89  00CD               	movwf	??_scale+2
  4123  0C8A  120A  158A  200A  120A  158A  	fcall	stringdir
  4124  0C8F  00CE               	movwf	??_scale+3
  4125  0C90  120A  158A  200A  120A  158A  	fcall	stringdir
  4126  0C95  00CF               	movwf	??_scale+4
  4127  0C96  084F               	movf	??_scale+4,w
  4128  0C97  00CA               	movwf	?_scale+3
  4129  0C98  084E               	movf	??_scale+3,w
  4130  0C99  00C9               	movwf	?_scale+2
  4131  0C9A  084D               	movf	??_scale+2,w
  4132  0C9B  00C8               	movwf	?_scale+1
  4133  0C9C  084C               	movf	??_scale+1,w
  4134  0C9D  00C7               	movwf	?_scale
  4135  0C9E                     l248:	
  4136  0C9E  0008               	return
  4137  0C9F                     __end_of_scale:	
  4138                           
  4139                           	psect	text3
  4140  1D7D                     __ptext3:	
  4141 ;; *************** function ___awmod *****************
  4142 ;; Defined at:
  4143 ;;		line 5 in file "C:\Program Files (x86)\Microchip\xc8\v2.10\pic\sources\c90\common\awmod.c"
  4144 ;; Parameters:    Size  Location     Type
  4145 ;;  divisor         2    0[COMMON] int 
  4146 ;;  dividend        2    2[COMMON] int 
  4147 ;; Auto vars:     Size  Location     Type
  4148 ;;  sign            1    6[COMMON] unsigned char 
  4149 ;;  counter         1    5[COMMON] unsigned char 
  4150 ;; Return value:  Size  Location     Type
  4151 ;;                  2    0[COMMON] int 
  4152 ;; Registers used:
  4153 ;;		wreg, status,2, status,0
  4154 ;; Tracked objects:
  4155 ;;		On entry : 0/0
  4156 ;;		On exit  : 0/0
  4157 ;;		Unchanged: 0/0
  4158 ;; Data sizes:     COMMON   BANK0   BANK1   BANK3   BANK2
  4159 ;;      Params:         4       0       0       0       0
  4160 ;;      Locals:         2       0       0       0       0
  4161 ;;      Temps:          1       0       0       0       0
  4162 ;;      Totals:         7       0       0       0       0
  4163 ;;Total ram usage:        7 bytes
  4164 ;; Hardware stack levels used:    1
  4165 ;; This function calls:
  4166 ;;		Nothing
  4167 ;; This function is called by:
  4168 ;;		_scale
  4169 ;; This function uses a non-reentrant model
  4170 ;;
  4171                           
  4172                           
  4173                           ;psect for function ___awmod
  4174  1D7D                     ___awmod:	
  4175  1D7D                     l2331:	
  4176                           ;incstack = 0
  4177                           ; Regs used in ___awmod: [wreg+status,2+status,0]
  4178                           
  4179  1D7D  01F6               	clrf	___awmod@sign
  4180  1D7E                     l2333:	
  4181  1D7E  1FF3               	btfss	___awmod@dividend+1,7
  4182  1D7F  2D81               	goto	u3211
  4183  1D80  2D82               	goto	u3210
  4184  1D81                     u3211:	
  4185  1D81  2D89               	goto	l2339
  4186  1D82                     u3210:	
  4187  1D82                     l2335:	
  4188  1D82  09F2               	comf	___awmod@dividend,f
  4189  1D83  09F3               	comf	___awmod@dividend+1,f
  4190  1D84  0AF2               	incf	___awmod@dividend,f
  4191  1D85  1903               	skipnz
  4192  1D86  0AF3               	incf	___awmod@dividend+1,f
  4193  1D87                     l2337:	
  4194  1D87  01F6               	clrf	___awmod@sign
  4195  1D88  0AF6               	incf	___awmod@sign,f
  4196  1D89                     l2339:	
  4197  1D89  1FF1               	btfss	___awmod@divisor+1,7
  4198  1D8A  2D8C               	goto	u3221
  4199  1D8B  2D8D               	goto	u3220
  4200  1D8C                     u3221:	
  4201  1D8C  2D92               	goto	l2343
  4202  1D8D                     u3220:	
  4203  1D8D                     l2341:	
  4204  1D8D  09F0               	comf	___awmod@divisor,f
  4205  1D8E  09F1               	comf	___awmod@divisor+1,f
  4206  1D8F  0AF0               	incf	___awmod@divisor,f
  4207  1D90  1903               	skipnz
  4208  1D91  0AF1               	incf	___awmod@divisor+1,f
  4209  1D92                     l2343:	
  4210  1D92  0870               	movf	___awmod@divisor,w
  4211  1D93  0471               	iorwf	___awmod@divisor+1,w
  4212  1D94  1903               	btfsc	3,2
  4213  1D95  2D97               	goto	u3231
  4214  1D96  2D98               	goto	u3230
  4215  1D97                     u3231:	
  4216  1D97  2DC7               	goto	l2361
  4217  1D98                     u3230:	
  4218  1D98                     l2345:	
  4219  1D98  01F5               	clrf	___awmod@counter
  4220  1D99  0AF5               	incf	___awmod@counter,f
  4221  1D9A  2DA6               	goto	l2351
  4222  1D9B                     l2347:	
  4223  1D9B  3001               	movlw	1
  4224  1D9C                     u3245:	
  4225  1D9C  1003               	clrc
  4226  1D9D  0DF0               	rlf	___awmod@divisor,f
  4227  1D9E  0DF1               	rlf	___awmod@divisor+1,f
  4228  1D9F  3EFF               	addlw	-1
  4229  1DA0  1D03               	skipz
  4230  1DA1  2D9C               	goto	u3245
  4231  1DA2                     l2349:	
  4232  1DA2  3001               	movlw	1
  4233  1DA3  00F4               	movwf	??___awmod
  4234  1DA4  0874               	movf	??___awmod,w
  4235  1DA5  07F5               	addwf	___awmod@counter,f
  4236  1DA6                     l2351:	
  4237  1DA6  1FF1               	btfss	___awmod@divisor+1,7
  4238  1DA7  2DA9               	goto	u3251
  4239  1DA8  2DAA               	goto	u3250
  4240  1DA9                     u3251:	
  4241  1DA9  2D9B               	goto	l2347
  4242  1DAA                     u3250:	
  4243  1DAA                     l2353:	
  4244  1DAA  0871               	movf	___awmod@divisor+1,w
  4245  1DAB  0273               	subwf	___awmod@dividend+1,w
  4246  1DAC  1D03               	skipz
  4247  1DAD  2DB0               	goto	u3265
  4248  1DAE  0870               	movf	___awmod@divisor,w
  4249  1DAF  0272               	subwf	___awmod@dividend,w
  4250  1DB0                     u3265:	
  4251  1DB0  1C03               	skipc
  4252  1DB1  2DB3               	goto	u3261
  4253  1DB2  2DB4               	goto	u3260
  4254  1DB3                     u3261:	
  4255  1DB3  2DBA               	goto	l2357
  4256  1DB4                     u3260:	
  4257  1DB4                     l2355:	
  4258  1DB4  0870               	movf	___awmod@divisor,w
  4259  1DB5  02F2               	subwf	___awmod@dividend,f
  4260  1DB6  0871               	movf	___awmod@divisor+1,w
  4261  1DB7  1C03               	skipc
  4262  1DB8  03F3               	decf	___awmod@dividend+1,f
  4263  1DB9  02F3               	subwf	___awmod@dividend+1,f
  4264  1DBA                     l2357:	
  4265  1DBA  3001               	movlw	1
  4266  1DBB                     u3275:	
  4267  1DBB  1003               	clrc
  4268  1DBC  0CF1               	rrf	___awmod@divisor+1,f
  4269  1DBD  0CF0               	rrf	___awmod@divisor,f
  4270  1DBE  3EFF               	addlw	-1
  4271  1DBF  1D03               	skipz
  4272  1DC0  2DBB               	goto	u3275
  4273  1DC1                     l2359:	
  4274  1DC1  3001               	movlw	1
  4275  1DC2  02F5               	subwf	___awmod@counter,f
  4276  1DC3  1D03               	btfss	3,2
  4277  1DC4  2DC6               	goto	u3281
  4278  1DC5  2DC7               	goto	u3280
  4279  1DC6                     u3281:	
  4280  1DC6  2DAA               	goto	l2353
  4281  1DC7                     u3280:	
  4282  1DC7                     l2361:	
  4283  1DC7  0876               	movf	___awmod@sign,w
  4284  1DC8  1903               	btfsc	3,2
  4285  1DC9  2DCB               	goto	u3291
  4286  1DCA  2DCC               	goto	u3290
  4287  1DCB                     u3291:	
  4288  1DCB  2DD1               	goto	l2365
  4289  1DCC                     u3290:	
  4290  1DCC                     l2363:	
  4291  1DCC  09F2               	comf	___awmod@dividend,f
  4292  1DCD  09F3               	comf	___awmod@dividend+1,f
  4293  1DCE  0AF2               	incf	___awmod@dividend,f
  4294  1DCF  1903               	skipnz
  4295  1DD0  0AF3               	incf	___awmod@dividend+1,f
  4296  1DD1                     l2365:	
  4297  1DD1  0873               	movf	___awmod@dividend+1,w
  4298  1DD2  00F1               	movwf	?___awmod+1
  4299  1DD3  0872               	movf	___awmod@dividend,w
  4300  1DD4  00F0               	movwf	?___awmod
  4301  1DD5                     l484:	
  4302  1DD5  0008               	return
  4303  1DD6                     __end_of___awmod:	
  4304                           
  4305                           	psect	text4
  4306  08D7                     __ptext4:	
  4307 ;; *************** function ___awdiv *****************
  4308 ;; Defined at:
  4309 ;;		line 5 in file "C:\Program Files (x86)\Microchip\xc8\v2.10\pic\sources\c90\common\awdiv.c"
  4310 ;; Parameters:    Size  Location     Type
  4311 ;;  divisor         2    7[COMMON] int 
  4312 ;;  dividend        2    9[COMMON] int 
  4313 ;; Auto vars:     Size  Location     Type
  4314 ;;  quotient        2    2[BANK0 ] int 
  4315 ;;  sign            1    1[BANK0 ] unsigned char 
  4316 ;;  counter         1    0[BANK0 ] unsigned char 
  4317 ;; Return value:  Size  Location     Type
  4318 ;;                  2    7[COMMON] int 
  4319 ;; Registers used:
  4320 ;;		wreg, status,2, status,0
  4321 ;; Tracked objects:
  4322 ;;		On entry : 0/0
  4323 ;;		On exit  : 0/0
  4324 ;;		Unchanged: 0/0
  4325 ;; Data sizes:     COMMON   BANK0   BANK1   BANK3   BANK2
  4326 ;;      Params:         4       0       0       0       0
  4327 ;;      Locals:         0       4       0       0       0
  4328 ;;      Temps:          1       0       0       0       0
  4329 ;;      Totals:         5       4       0       0       0
  4330 ;;Total ram usage:        9 bytes
  4331 ;; Hardware stack levels used:    1
  4332 ;; This function calls:
  4333 ;;		Nothing
  4334 ;; This function is called by:
  4335 ;;		_scale
  4336 ;;		_sprintf
  4337 ;; This function uses a non-reentrant model
  4338 ;;
  4339                           
  4340                           
  4341                           ;psect for function ___awdiv
  4342  08D7                     ___awdiv:	
  4343  08D7                     l2287:	
  4344                           ;incstack = 0
  4345                           ; Regs used in ___awdiv: [wreg+status,2+status,0]
  4346                           
  4347  08D7  1283               	bcf	3,5	;RP0=0, select bank0
  4348  08D8  1303               	bcf	3,6	;RP1=0, select bank0
  4349  08D9  01A1               	clrf	___awdiv@sign
  4350  08DA                     l2289:	
  4351  08DA  1FF8               	btfss	___awdiv@divisor+1,7
  4352  08DB  28DD               	goto	u3111
  4353  08DC  28DE               	goto	u3110
  4354  08DD                     u3111:	
  4355  08DD  28E5               	goto	l2295
  4356  08DE                     u3110:	
  4357  08DE                     l2291:	
  4358  08DE  09F7               	comf	___awdiv@divisor,f
  4359  08DF  09F8               	comf	___awdiv@divisor+1,f
  4360  08E0  0AF7               	incf	___awdiv@divisor,f
  4361  08E1  1903               	skipnz
  4362  08E2  0AF8               	incf	___awdiv@divisor+1,f
  4363  08E3                     l2293:	
  4364  08E3  01A1               	clrf	___awdiv@sign
  4365  08E4  0AA1               	incf	___awdiv@sign,f
  4366  08E5                     l2295:	
  4367  08E5  1FFA               	btfss	___awdiv@dividend+1,7
  4368  08E6  28E8               	goto	u3121
  4369  08E7  28E9               	goto	u3120
  4370  08E8                     u3121:	
  4371  08E8  28F2               	goto	l2301
  4372  08E9                     u3120:	
  4373  08E9                     l2297:	
  4374  08E9  09F9               	comf	___awdiv@dividend,f
  4375  08EA  09FA               	comf	___awdiv@dividend+1,f
  4376  08EB  0AF9               	incf	___awdiv@dividend,f
  4377  08EC  1903               	skipnz
  4378  08ED  0AFA               	incf	___awdiv@dividend+1,f
  4379  08EE                     l2299:	
  4380  08EE  3001               	movlw	1
  4381  08EF  00FB               	movwf	??___awdiv
  4382  08F0  087B               	movf	??___awdiv,w
  4383  08F1  06A1               	xorwf	___awdiv@sign,f
  4384  08F2                     l2301:	
  4385  08F2  01A2               	clrf	___awdiv@quotient
  4386  08F3  01A3               	clrf	___awdiv@quotient+1
  4387  08F4                     l2303:	
  4388  08F4  0877               	movf	___awdiv@divisor,w
  4389  08F5  0478               	iorwf	___awdiv@divisor+1,w
  4390  08F6  1903               	btfsc	3,2
  4391  08F7  28F9               	goto	u3131
  4392  08F8  28FA               	goto	u3130
  4393  08F9                     u3131:	
  4394  08F9  2931               	goto	l2323
  4395  08FA                     u3130:	
  4396  08FA                     l2305:	
  4397  08FA  01A0               	clrf	___awdiv@counter
  4398  08FB  0AA0               	incf	___awdiv@counter,f
  4399  08FC  2908               	goto	l2311
  4400  08FD                     l2307:	
  4401  08FD  3001               	movlw	1
  4402  08FE                     u3145:	
  4403  08FE  1003               	clrc
  4404  08FF  0DF7               	rlf	___awdiv@divisor,f
  4405  0900  0DF8               	rlf	___awdiv@divisor+1,f
  4406  0901  3EFF               	addlw	-1
  4407  0902  1D03               	skipz
  4408  0903  28FE               	goto	u3145
  4409  0904                     l2309:	
  4410  0904  3001               	movlw	1
  4411  0905  00FB               	movwf	??___awdiv
  4412  0906  087B               	movf	??___awdiv,w
  4413  0907  07A0               	addwf	___awdiv@counter,f
  4414  0908                     l2311:	
  4415  0908  1FF8               	btfss	___awdiv@divisor+1,7
  4416  0909  290B               	goto	u3151
  4417  090A  290C               	goto	u3150
  4418  090B                     u3151:	
  4419  090B  28FD               	goto	l2307
  4420  090C                     u3150:	
  4421  090C                     l2313:	
  4422  090C  3001               	movlw	1
  4423  090D                     u3165:	
  4424  090D  1003               	clrc
  4425  090E  0DA2               	rlf	___awdiv@quotient,f
  4426  090F  0DA3               	rlf	___awdiv@quotient+1,f
  4427  0910  3EFF               	addlw	-1
  4428  0911  1D03               	skipz
  4429  0912  290D               	goto	u3165
  4430  0913  0878               	movf	___awdiv@divisor+1,w
  4431  0914  027A               	subwf	___awdiv@dividend+1,w
  4432  0915  1D03               	skipz
  4433  0916  2919               	goto	u3175
  4434  0917  0877               	movf	___awdiv@divisor,w
  4435  0918  0279               	subwf	___awdiv@dividend,w
  4436  0919                     u3175:	
  4437  0919  1C03               	skipc
  4438  091A  291C               	goto	u3171
  4439  091B  291D               	goto	u3170
  4440  091C                     u3171:	
  4441  091C  2924               	goto	l2319
  4442  091D                     u3170:	
  4443  091D                     l2315:	
  4444  091D  0877               	movf	___awdiv@divisor,w
  4445  091E  02F9               	subwf	___awdiv@dividend,f
  4446  091F  0878               	movf	___awdiv@divisor+1,w
  4447  0920  1C03               	skipc
  4448  0921  03FA               	decf	___awdiv@dividend+1,f
  4449  0922  02FA               	subwf	___awdiv@dividend+1,f
  4450  0923                     l2317:	
  4451  0923  1422               	bsf	___awdiv@quotient,0
  4452  0924                     l2319:	
  4453  0924  3001               	movlw	1
  4454  0925                     u3185:	
  4455  0925  1003               	clrc
  4456  0926  0CF8               	rrf	___awdiv@divisor+1,f
  4457  0927  0CF7               	rrf	___awdiv@divisor,f
  4458  0928  3EFF               	addlw	-1
  4459  0929  1D03               	skipz
  4460  092A  2925               	goto	u3185
  4461  092B                     l2321:	
  4462  092B  3001               	movlw	1
  4463  092C  02A0               	subwf	___awdiv@counter,f
  4464  092D  1D03               	btfss	3,2
  4465  092E  2930               	goto	u3191
  4466  092F  2931               	goto	u3190
  4467  0930                     u3191:	
  4468  0930  290C               	goto	l2313
  4469  0931                     u3190:	
  4470  0931                     l2323:	
  4471  0931  0821               	movf	___awdiv@sign,w
  4472  0932  1903               	btfsc	3,2
  4473  0933  2935               	goto	u3201
  4474  0934  2936               	goto	u3200
  4475  0935                     u3201:	
  4476  0935  293B               	goto	l2327
  4477  0936                     u3200:	
  4478  0936                     l2325:	
  4479  0936  09A2               	comf	___awdiv@quotient,f
  4480  0937  09A3               	comf	___awdiv@quotient+1,f
  4481  0938  0AA2               	incf	___awdiv@quotient,f
  4482  0939  1903               	skipnz
  4483  093A  0AA3               	incf	___awdiv@quotient+1,f
  4484  093B                     l2327:	
  4485  093B  0823               	movf	___awdiv@quotient+1,w
  4486  093C  00F8               	movwf	?___awdiv+1
  4487  093D  0822               	movf	___awdiv@quotient,w
  4488  093E  00F7               	movwf	?___awdiv
  4489  093F                     l471:	
  4490  093F  0008               	return
  4491  0940                     __end_of___awdiv:	
  4492                           
  4493                           	psect	text5
  4494  08C5                     __ptext5:	
  4495 ;; *************** function _isdigit *****************
  4496 ;; Defined at:
  4497 ;;		line 8 in file "C:\Program Files (x86)\Microchip\xc8\v2.10\pic\sources\c90\common\isdigit.c"
  4498 ;; Parameters:    Size  Location     Type
  4499 ;;  c               1    wreg     unsigned char 
  4500 ;; Auto vars:     Size  Location     Type
  4501 ;;  c               1    1[COMMON] unsigned char 
  4502 ;; Return value:  Size  Location     Type
  4503 ;;		None               void
  4504 ;; Registers used:
  4505 ;;		wreg, status,2, status,0
  4506 ;; Tracked objects:
  4507 ;;		On entry : 0/0
  4508 ;;		On exit  : 0/0
  4509 ;;		Unchanged: 0/0
  4510 ;; Data sizes:     COMMON   BANK0   BANK1   BANK3   BANK2
  4511 ;;      Params:         0       0       0       0       0
  4512 ;;      Locals:         2       0       0       0       0
  4513 ;;      Temps:          0       0       0       0       0
  4514 ;;      Totals:         2       0       0       0       0
  4515 ;;Total ram usage:        2 bytes
  4516 ;; Hardware stack levels used:    1
  4517 ;; This function calls:
  4518 ;;		Nothing
  4519 ;; This function is called by:
  4520 ;;		_sprintf
  4521 ;; This function uses a non-reentrant model
  4522 ;;
  4523                           
  4524                           
  4525                           ;psect for function _isdigit
  4526  08C5                     _isdigit:	
  4527                           
  4528                           ;incstack = 0
  4529                           ; Regs used in _isdigit: [wreg+status,2+status,0]
  4530                           ;isdigit@c stored from wreg
  4531  08C5  00F1               	movwf	isdigit@c
  4532  08C6                     l2813:	
  4533  08C6  01F0               	clrf	_isdigit$737
  4534  08C7                     l2815:	
  4535  08C7  303A               	movlw	58
  4536  08C8  0271               	subwf	isdigit@c,w
  4537  08C9  1803               	skipnc
  4538  08CA  28CC               	goto	u4531
  4539  08CB  28CD               	goto	u4530
  4540  08CC                     u4531:	
  4541  08CC  28D5               	goto	l2821
  4542  08CD                     u4530:	
  4543  08CD                     l2817:	
  4544  08CD  3030               	movlw	48
  4545  08CE  0271               	subwf	isdigit@c,w
  4546  08CF  1C03               	skipc
  4547  08D0  28D2               	goto	u4541
  4548  08D1  28D3               	goto	u4540
  4549  08D2                     u4541:	
  4550  08D2  28D5               	goto	l2821
  4551  08D3                     u4540:	
  4552  08D3                     l2819:	
  4553  08D3  01F0               	clrf	_isdigit$737
  4554  08D4  0AF0               	incf	_isdigit$737,f
  4555  08D5                     l2821:	
  4556  08D5  0C70               	rrf	_isdigit$737,w
  4557  08D6                     l799:	
  4558  08D6  0008               	return
  4559  08D7                     __end_of_isdigit:	
  4560                           
  4561                           	psect	text6
  4562  136D                     __ptext6:	
  4563 ;; *************** function _fround *****************
  4564 ;; Defined at:
  4565 ;;		line 417 in file "C:\Program Files (x86)\Microchip\xc8\v2.10\pic\sources\c90\common\doprnt.c"
  4566 ;; Parameters:    Size  Location     Type
  4567 ;;  prec            1    wreg     unsigned char 
  4568 ;; Auto vars:     Size  Location     Type
  4569 ;;  prec            1   58[BANK0 ] unsigned char 
  4570 ;; Return value:  Size  Location     Type
  4571 ;;                  4   39[BANK0 ] unsigned char 
  4572 ;; Registers used:
  4573 ;;		wreg, fsr0l, fsr0h, status,2, status,0, btemp+1, pclath, cstack
  4574 ;; Tracked objects:
  4575 ;;		On entry : 0/0
  4576 ;;		On exit  : 0/0
  4577 ;;		Unchanged: 0/0
  4578 ;; Data sizes:     COMMON   BANK0   BANK1   BANK3   BANK2
  4579 ;;      Params:         0       4       0       0       0
  4580 ;;      Locals:         0       9       0       0       0
  4581 ;;      Temps:          0       7       0       0       0
  4582 ;;      Totals:         0      20       0       0       0
  4583 ;;Total ram usage:       20 bytes
  4584 ;; Hardware stack levels used:    1
  4585 ;; Hardware stack levels required when called:    2
  4586 ;; This function calls:
  4587 ;;		___flmul
  4588 ;;		___lwdiv
  4589 ;;		___lwmod
  4590 ;; This function is called by:
  4591 ;;		_sprintf
  4592 ;; This function uses a non-reentrant model
  4593 ;;
  4594                           
  4595                           
  4596                           ;psect for function _fround
  4597  136D                     _fround:	
  4598                           
  4599                           ;incstack = 0
  4600                           ; Regs used in _fround: [wreg-fsr0h+status,2+status,0+btemp+1+pclath+cstack]
  4601                           ;fround@prec stored from wreg
  4602  136D  1283               	bcf	3,5	;RP0=0, select bank0
  4603  136E  1303               	bcf	3,6	;RP1=0, select bank0
  4604  136F  00DA               	movwf	fround@prec
  4605  1370                     l2755:	
  4606                           
  4607                           ;C:\Program Files (x86)\Microchip\xc8\v2.10\pic\sources\c90\common\doprnt.c: 417: fround
      +                          (unsigned char prec);C:\Program Files (x86)\Microchip\xc8\v2.10\pic\sources\c90\common\d
      +                          oprnt.c: 418: {;C:\Program Files (x86)\Microchip\xc8\v2.10\pic\sources\c90\common\doprnt
      +                          .c: 421:  if(prec>=110)
  4608  1370  306E               	movlw	110
  4609  1371  025A               	subwf	fround@prec,w
  4610  1372  1C03               	skipc
  4611  1373  2B75               	goto	u4281
  4612  1374  2B76               	goto	u4280
  4613  1375                     u4281:	
  4614  1375  2C83               	goto	l2763
  4615  1376                     u4280:	
  4616  1376                     l2757:	
  4617                           
  4618                           ;C:\Program Files (x86)\Microchip\xc8\v2.10\pic\sources\c90\common\doprnt.c: 422:   retu
      +                          rn 0.5 * _npowers_[prec/100U+18U] * _npowers_[(prec%100U)/10U+9U] * _npowers_[prec%10U];
  4619  1376  303F               	movlw	63
  4620  1377  00B0               	movwf	___flmul@b+3
  4621  1378  3000               	movlw	0
  4622  1379  00AF               	movwf	___flmul@b+2
  4623  137A  3000               	movlw	0
  4624  137B  00AE               	movwf	___flmul@b+1
  4625  137C  3000               	movlw	0
  4626  137D  00AD               	movwf	___flmul@b
  4627  137E  3064               	movlw	100
  4628  137F  00F6               	movwf	___lwdiv@divisor
  4629  1380  3000               	movlw	0
  4630  1381  00F7               	movwf	___lwdiv@divisor+1
  4631  1382  085A               	movf	fround@prec,w
  4632  1383  00CB               	movwf	??_fround
  4633  1384  01CC               	clrf	??_fround+1
  4634  1385  084B               	movf	??_fround,w
  4635  1386  00F8               	movwf	___lwdiv@dividend
  4636  1387  084C               	movf	??_fround+1,w
  4637  1388  00F9               	movwf	___lwdiv@dividend+1
  4638  1389  160A  158A  2447  160A  118A  	fcall	___lwdiv
  4639  138E  0876               	movf	?___lwdiv,w
  4640  138F  1283               	bcf	3,5	;RP0=0, select bank0
  4641  1390  1303               	bcf	3,6	;RP1=0, select bank0
  4642  1391  00CD               	movwf	??_fround+2
  4643  1392  3001               	movlw	1
  4644  1393                     u4295:	
  4645  1393  1003               	clrc
  4646  1394  0DCD               	rlf	??_fround+2,f
  4647  1395  3EFF               	addlw	-1
  4648  1396  1D03               	skipz
  4649  1397  2B93               	goto	u4295
  4650  1398  1003               	clrc
  4651  1399  0D4D               	rlf	??_fround+2,w
  4652  139A  3E7D               	addlw	low (((__npowers_-__stringbase)| (0+32768)+72))
  4653  139B  0084               	movwf	4
  4654  139C  120A  158A  200A  160A  118A  	fcall	stringdir
  4655  13A1  00CE               	movwf	??_fround+3
  4656  13A2  120A  158A  200A  160A  118A  	fcall	stringdir
  4657  13A7  00CF               	movwf	??_fround+4
  4658  13A8  120A  158A  200A  160A  118A  	fcall	stringdir
  4659  13AD  00D0               	movwf	??_fround+5
  4660  13AE  120A  158A  200A  160A  118A  	fcall	stringdir
  4661  13B3  00D1               	movwf	??_fround+6
  4662  13B4  0851               	movf	??_fround+6,w
  4663  13B5  00B4               	movwf	___flmul@a+3
  4664  13B6  0850               	movf	??_fround+5,w
  4665  13B7  00B3               	movwf	___flmul@a+2
  4666  13B8  084F               	movf	??_fround+4,w
  4667  13B9  00B2               	movwf	___flmul@a+1
  4668  13BA  084E               	movf	??_fround+3,w
  4669  13BB  00B1               	movwf	___flmul@a
  4670  13BC  120A  158A  249F  160A  118A  	fcall	___flmul
  4671  13C1  1283               	bcf	3,5	;RP0=0, select bank0
  4672  13C2  1303               	bcf	3,6	;RP1=0, select bank0
  4673  13C3  0830               	movf	?___flmul+3,w
  4674  13C4  00D9               	movwf	_fround$915+3
  4675  13C5  082F               	movf	?___flmul+2,w
  4676  13C6  00D8               	movwf	_fround$915+2
  4677  13C7  082E               	movf	?___flmul+1,w
  4678  13C8  00D7               	movwf	_fround$915+1
  4679  13C9  082D               	movf	?___flmul,w
  4680  13CA  00D6               	movwf	_fround$915
  4681                           
  4682                           ;C:\Program Files (x86)\Microchip\xc8\v2.10\pic\sources\c90\common\doprnt.c: 422:   retu
      +                          rn 0.5 * _npowers_[prec/100U+18U] * _npowers_[(prec%100U)/10U+9U] * _npowers_[prec%10U];
  4683  13CB  300A               	movlw	10
  4684  13CC  00F6               	movwf	___lwdiv@divisor
  4685  13CD  3000               	movlw	0
  4686  13CE  00F7               	movwf	___lwdiv@divisor+1
  4687  13CF  085A               	movf	fround@prec,w
  4688  13D0  00CB               	movwf	??_fround
  4689  13D1  01CC               	clrf	??_fround+1
  4690  13D2  084B               	movf	??_fround,w
  4691  13D3  00F2               	movwf	___lwmod@dividend
  4692  13D4  084C               	movf	??_fround+1,w
  4693  13D5  00F3               	movwf	___lwmod@dividend+1
  4694  13D6  3064               	movlw	100
  4695  13D7  00F0               	movwf	___lwmod@divisor
  4696  13D8  3000               	movlw	0
  4697  13D9  00F1               	movwf	___lwmod@divisor+1
  4698  13DA  160A  158A  240D  160A  118A  	fcall	___lwmod
  4699  13DF  0871               	movf	?___lwmod+1,w
  4700  13E0  00F9               	movwf	___lwdiv@dividend+1
  4701  13E1  0870               	movf	?___lwmod,w
  4702  13E2  00F8               	movwf	___lwdiv@dividend
  4703  13E3  160A  158A  2447  160A  118A  	fcall	___lwdiv
  4704  13E8  0876               	movf	?___lwdiv,w
  4705  13E9  1283               	bcf	3,5	;RP0=0, select bank0
  4706  13EA  1303               	bcf	3,6	;RP1=0, select bank0
  4707  13EB  00CD               	movwf	??_fround+2
  4708  13EC  3001               	movlw	1
  4709  13ED                     u4305:	
  4710  13ED  1003               	clrc
  4711  13EE  0DCD               	rlf	??_fround+2,f
  4712  13EF  3EFF               	addlw	-1
  4713  13F0  1D03               	skipz
  4714  13F1  2BED               	goto	u4305
  4715  13F2  1003               	clrc
  4716  13F3  0D4D               	rlf	??_fround+2,w
  4717  13F4  3E59               	addlw	low (((__npowers_-__stringbase)| (0+32768)+36))
  4718  13F5  0084               	movwf	4
  4719  13F6  120A  158A  200A  160A  118A  	fcall	stringdir
  4720  13FB  00CE               	movwf	??_fround+3
  4721  13FC  120A  158A  200A  160A  118A  	fcall	stringdir
  4722  1401  00CF               	movwf	??_fround+4
  4723  1402  120A  158A  200A  160A  118A  	fcall	stringdir
  4724  1407  00D0               	movwf	??_fround+5
  4725  1408  120A  158A  200A  160A  118A  	fcall	stringdir
  4726  140D  00D1               	movwf	??_fround+6
  4727  140E  0851               	movf	??_fround+6,w
  4728  140F  00B0               	movwf	___flmul@b+3
  4729  1410  0850               	movf	??_fround+5,w
  4730  1411  00AF               	movwf	___flmul@b+2
  4731  1412  084F               	movf	??_fround+4,w
  4732  1413  00AE               	movwf	___flmul@b+1
  4733  1414  084E               	movf	??_fround+3,w
  4734  1415  00AD               	movwf	___flmul@b
  4735  1416  0859               	movf	_fround$915+3,w
  4736  1417  00B4               	movwf	___flmul@a+3
  4737  1418  0858               	movf	_fround$915+2,w
  4738  1419  00B3               	movwf	___flmul@a+2
  4739  141A  0857               	movf	_fround$915+1,w
  4740  141B  00B2               	movwf	___flmul@a+1
  4741  141C  0856               	movf	_fround$915,w
  4742  141D  00B1               	movwf	___flmul@a
  4743  141E  120A  158A  249F  160A  118A  	fcall	___flmul
  4744  1423  1283               	bcf	3,5	;RP0=0, select bank0
  4745  1424  1303               	bcf	3,6	;RP1=0, select bank0
  4746  1425  0830               	movf	?___flmul+3,w
  4747  1426  00D5               	movwf	_fround$916+3
  4748  1427  082F               	movf	?___flmul+2,w
  4749  1428  00D4               	movwf	_fround$916+2
  4750  1429  082E               	movf	?___flmul+1,w
  4751  142A  00D3               	movwf	_fround$916+1
  4752  142B  082D               	movf	?___flmul,w
  4753  142C  00D2               	movwf	_fround$916
  4754                           
  4755                           ;C:\Program Files (x86)\Microchip\xc8\v2.10\pic\sources\c90\common\doprnt.c: 422:   retu
      +                          rn 0.5 * _npowers_[prec/100U+18U] * _npowers_[(prec%100U)/10U+9U] * _npowers_[prec%10U];
  4756  142D  300A               	movlw	10
  4757  142E  00F0               	movwf	___lwmod@divisor
  4758  142F  3000               	movlw	0
  4759  1430  00F1               	movwf	___lwmod@divisor+1
  4760  1431  085A               	movf	fround@prec,w
  4761  1432  00CB               	movwf	??_fround
  4762  1433  01CC               	clrf	??_fround+1
  4763  1434  084B               	movf	??_fround,w
  4764  1435  00F2               	movwf	___lwmod@dividend
  4765  1436  084C               	movf	??_fround+1,w
  4766  1437  00F3               	movwf	___lwmod@dividend+1
  4767  1438  160A  158A  240D  160A  118A  	fcall	___lwmod
  4768  143D  0870               	movf	?___lwmod,w
  4769  143E  1283               	bcf	3,5	;RP0=0, select bank0
  4770  143F  1303               	bcf	3,6	;RP1=0, select bank0
  4771  1440  00CD               	movwf	??_fround+2
  4772  1441  3001               	movlw	1
  4773  1442                     u4315:	
  4774  1442  1003               	clrc
  4775  1443  0DCD               	rlf	??_fround+2,f
  4776  1444  3EFF               	addlw	-1
  4777  1445  1D03               	skipz
  4778  1446  2C42               	goto	u4315
  4779  1447  1003               	clrc
  4780  1448  0D4D               	rlf	??_fround+2,w
  4781  1449  3E35               	addlw	low ((__npowers_-__stringbase)| (0+32768))
  4782  144A  0084               	movwf	4
  4783  144B  120A  158A  200A  160A  118A  	fcall	stringdir
  4784  1450  00CE               	movwf	??_fround+3
  4785  1451  120A  158A  200A  160A  118A  	fcall	stringdir
  4786  1456  00CF               	movwf	??_fround+4
  4787  1457  120A  158A  200A  160A  118A  	fcall	stringdir
  4788  145C  00D0               	movwf	??_fround+5
  4789  145D  120A  158A  200A  160A  118A  	fcall	stringdir
  4790  1462  00D1               	movwf	??_fround+6
  4791  1463  0851               	movf	??_fround+6,w
  4792  1464  00B0               	movwf	___flmul@b+3
  4793  1465  0850               	movf	??_fround+5,w
  4794  1466  00AF               	movwf	___flmul@b+2
  4795  1467  084F               	movf	??_fround+4,w
  4796  1468  00AE               	movwf	___flmul@b+1
  4797  1469  084E               	movf	??_fround+3,w
  4798  146A  00AD               	movwf	___flmul@b
  4799  146B  0855               	movf	_fround$916+3,w
  4800  146C  00B4               	movwf	___flmul@a+3
  4801  146D  0854               	movf	_fround$916+2,w
  4802  146E  00B3               	movwf	___flmul@a+2
  4803  146F  0853               	movf	_fround$916+1,w
  4804  1470  00B2               	movwf	___flmul@a+1
  4805  1471  0852               	movf	_fround$916,w
  4806  1472  00B1               	movwf	___flmul@a
  4807  1473  120A  158A  249F  160A  118A  	fcall	___flmul
  4808  1478  1283               	bcf	3,5	;RP0=0, select bank0
  4809  1479  1303               	bcf	3,6	;RP1=0, select bank0
  4810  147A  0830               	movf	?___flmul+3,w
  4811  147B  00CA               	movwf	?_fround+3
  4812  147C  082F               	movf	?___flmul+2,w
  4813  147D  00C9               	movwf	?_fround+2
  4814  147E  082E               	movf	?___flmul+1,w
  4815  147F  00C8               	movwf	?_fround+1
  4816  1480  082D               	movf	?___flmul,w
  4817  1481  00C7               	movwf	?_fround
  4818  1482  2D77               	goto	l241
  4819  1483                     l2763:	
  4820  1483  300B               	movlw	11
  4821  1484  025A               	subwf	fround@prec,w
  4822  1485  1C03               	skipc
  4823  1486  2C88               	goto	u4321
  4824  1487  2C89               	goto	u4320
  4825  1488                     u4321:	
  4826  1488  2D34               	goto	l2769
  4827  1489                     u4320:	
  4828  1489                     l2765:	
  4829                           
  4830                           ;C:\Program Files (x86)\Microchip\xc8\v2.10\pic\sources\c90\common\doprnt.c: 424:   retu
      +                          rn 0.5 * _npowers_[prec/10U+9U] * _npowers_[prec%10U];
  4831  1489  303F               	movlw	63
  4832  148A  00B0               	movwf	___flmul@b+3
  4833  148B  3000               	movlw	0
  4834  148C  00AF               	movwf	___flmul@b+2
  4835  148D  3000               	movlw	0
  4836  148E  00AE               	movwf	___flmul@b+1
  4837  148F  3000               	movlw	0
  4838  1490  00AD               	movwf	___flmul@b
  4839  1491  300A               	movlw	10
  4840  1492  00F6               	movwf	___lwdiv@divisor
  4841  1493  3000               	movlw	0
  4842  1494  00F7               	movwf	___lwdiv@divisor+1
  4843  1495  085A               	movf	fround@prec,w
  4844  1496  00CB               	movwf	??_fround
  4845  1497  01CC               	clrf	??_fround+1
  4846  1498  084B               	movf	??_fround,w
  4847  1499  00F8               	movwf	___lwdiv@dividend
  4848  149A  084C               	movf	??_fround+1,w
  4849  149B  00F9               	movwf	___lwdiv@dividend+1
  4850  149C  160A  158A  2447  160A  118A  	fcall	___lwdiv
  4851  14A1  0876               	movf	?___lwdiv,w
  4852  14A2  1283               	bcf	3,5	;RP0=0, select bank0
  4853  14A3  1303               	bcf	3,6	;RP1=0, select bank0
  4854  14A4  00CD               	movwf	??_fround+2
  4855  14A5  3001               	movlw	1
  4856  14A6                     u4335:	
  4857  14A6  1003               	clrc
  4858  14A7  0DCD               	rlf	??_fround+2,f
  4859  14A8  3EFF               	addlw	-1
  4860  14A9  1D03               	skipz
  4861  14AA  2CA6               	goto	u4335
  4862  14AB  1003               	clrc
  4863  14AC  0D4D               	rlf	??_fround+2,w
  4864  14AD  3E59               	addlw	low (((__npowers_-__stringbase)| (0+32768)+36))
  4865  14AE  0084               	movwf	4
  4866  14AF  120A  158A  200A  160A  118A  	fcall	stringdir
  4867  14B4  00CE               	movwf	??_fround+3
  4868  14B5  120A  158A  200A  160A  118A  	fcall	stringdir
  4869  14BA  00CF               	movwf	??_fround+4
  4870  14BB  120A  158A  200A  160A  118A  	fcall	stringdir
  4871  14C0  00D0               	movwf	??_fround+5
  4872  14C1  120A  158A  200A  160A  118A  	fcall	stringdir
  4873  14C6  00D1               	movwf	??_fround+6
  4874  14C7  0851               	movf	??_fround+6,w
  4875  14C8  00B4               	movwf	___flmul@a+3
  4876  14C9  0850               	movf	??_fround+5,w
  4877  14CA  00B3               	movwf	___flmul@a+2
  4878  14CB  084F               	movf	??_fround+4,w
  4879  14CC  00B2               	movwf	___flmul@a+1
  4880  14CD  084E               	movf	??_fround+3,w
  4881  14CE  00B1               	movwf	___flmul@a
  4882  14CF  120A  158A  249F  160A  118A  	fcall	___flmul
  4883  14D4  1283               	bcf	3,5	;RP0=0, select bank0
  4884  14D5  1303               	bcf	3,6	;RP1=0, select bank0
  4885  14D6  0830               	movf	?___flmul+3,w
  4886  14D7  00D9               	movwf	_fround$915+3
  4887  14D8  082F               	movf	?___flmul+2,w
  4888  14D9  00D8               	movwf	_fround$915+2
  4889  14DA  082E               	movf	?___flmul+1,w
  4890  14DB  00D7               	movwf	_fround$915+1
  4891  14DC  082D               	movf	?___flmul,w
  4892  14DD  00D6               	movwf	_fround$915
  4893                           
  4894                           ;C:\Program Files (x86)\Microchip\xc8\v2.10\pic\sources\c90\common\doprnt.c: 424:   retu
      +                          rn 0.5 * _npowers_[prec/10U+9U] * _npowers_[prec%10U];
  4895  14DE  300A               	movlw	10
  4896  14DF  00F0               	movwf	___lwmod@divisor
  4897  14E0  3000               	movlw	0
  4898  14E1  00F1               	movwf	___lwmod@divisor+1
  4899  14E2  085A               	movf	fround@prec,w
  4900  14E3  00CB               	movwf	??_fround
  4901  14E4  01CC               	clrf	??_fround+1
  4902  14E5  084B               	movf	??_fround,w
  4903  14E6  00F2               	movwf	___lwmod@dividend
  4904  14E7  084C               	movf	??_fround+1,w
  4905  14E8  00F3               	movwf	___lwmod@dividend+1
  4906  14E9  160A  158A  240D  160A  118A  	fcall	___lwmod
  4907  14EE  0870               	movf	?___lwmod,w
  4908  14EF  1283               	bcf	3,5	;RP0=0, select bank0
  4909  14F0  1303               	bcf	3,6	;RP1=0, select bank0
  4910  14F1  00CD               	movwf	??_fround+2
  4911  14F2  3001               	movlw	1
  4912  14F3                     u4345:	
  4913  14F3  1003               	clrc
  4914  14F4  0DCD               	rlf	??_fround+2,f
  4915  14F5  3EFF               	addlw	-1
  4916  14F6  1D03               	skipz
  4917  14F7  2CF3               	goto	u4345
  4918  14F8  1003               	clrc
  4919  14F9  0D4D               	rlf	??_fround+2,w
  4920  14FA  3E35               	addlw	low ((__npowers_-__stringbase)| (0+32768))
  4921  14FB  0084               	movwf	4
  4922  14FC  120A  158A  200A  160A  118A  	fcall	stringdir
  4923  1501  00CE               	movwf	??_fround+3
  4924  1502  120A  158A  200A  160A  118A  	fcall	stringdir
  4925  1507  00CF               	movwf	??_fround+4
  4926  1508  120A  158A  200A  160A  118A  	fcall	stringdir
  4927  150D  00D0               	movwf	??_fround+5
  4928  150E  120A  158A  200A  160A  118A  	fcall	stringdir
  4929  1513  00D1               	movwf	??_fround+6
  4930  1514  0851               	movf	??_fround+6,w
  4931  1515  00B0               	movwf	___flmul@b+3
  4932  1516  0850               	movf	??_fround+5,w
  4933  1517  00AF               	movwf	___flmul@b+2
  4934  1518  084F               	movf	??_fround+4,w
  4935  1519  00AE               	movwf	___flmul@b+1
  4936  151A  084E               	movf	??_fround+3,w
  4937  151B  00AD               	movwf	___flmul@b
  4938  151C  0859               	movf	_fround$915+3,w
  4939  151D  00B4               	movwf	___flmul@a+3
  4940  151E  0858               	movf	_fround$915+2,w
  4941  151F  00B3               	movwf	___flmul@a+2
  4942  1520  0857               	movf	_fround$915+1,w
  4943  1521  00B2               	movwf	___flmul@a+1
  4944  1522  0856               	movf	_fround$915,w
  4945  1523  00B1               	movwf	___flmul@a
  4946  1524  120A  158A  249F  160A  118A  	fcall	___flmul
  4947  1529  1283               	bcf	3,5	;RP0=0, select bank0
  4948  152A  1303               	bcf	3,6	;RP1=0, select bank0
  4949  152B  0830               	movf	?___flmul+3,w
  4950  152C  00CA               	movwf	?_fround+3
  4951  152D  082F               	movf	?___flmul+2,w
  4952  152E  00C9               	movwf	?_fround+2
  4953  152F  082E               	movf	?___flmul+1,w
  4954  1530  00C8               	movwf	?_fround+1
  4955  1531  082D               	movf	?___flmul,w
  4956  1532  00C7               	movwf	?_fround
  4957  1533  2D77               	goto	l241
  4958  1534                     l2769:	
  4959                           
  4960                           ;C:\Program Files (x86)\Microchip\xc8\v2.10\pic\sources\c90\common\doprnt.c: 425:  retur
      +                          n 0.5 * _npowers_[prec];
  4961  1534  303F               	movlw	63
  4962  1535  00B0               	movwf	___flmul@b+3
  4963  1536  3000               	movlw	0
  4964  1537  00AF               	movwf	___flmul@b+2
  4965  1538  3000               	movlw	0
  4966  1539  00AE               	movwf	___flmul@b+1
  4967  153A  3000               	movlw	0
  4968  153B  00AD               	movwf	___flmul@b
  4969  153C  085A               	movf	fround@prec,w
  4970  153D  00CB               	movwf	??_fround
  4971  153E  3001               	movlw	1
  4972  153F                     u4355:	
  4973  153F  1003               	clrc
  4974  1540  0DCB               	rlf	??_fround,f
  4975  1541  3EFF               	addlw	-1
  4976  1542  1D03               	skipz
  4977  1543  2D3F               	goto	u4355
  4978  1544  1003               	clrc
  4979  1545  0D4B               	rlf	??_fround,w
  4980  1546  3E35               	addlw	low ((__npowers_-__stringbase)| (0+32768))
  4981  1547  0084               	movwf	4
  4982  1548  120A  158A  200A  160A  118A  	fcall	stringdir
  4983  154D  00CC               	movwf	??_fround+1
  4984  154E  120A  158A  200A  160A  118A  	fcall	stringdir
  4985  1553  00CD               	movwf	??_fround+2
  4986  1554  120A  158A  200A  160A  118A  	fcall	stringdir
  4987  1559  00CE               	movwf	??_fround+3
  4988  155A  120A  158A  200A  160A  118A  	fcall	stringdir
  4989  155F  00CF               	movwf	??_fround+4
  4990  1560  084F               	movf	??_fround+4,w
  4991  1561  00B4               	movwf	___flmul@a+3
  4992  1562  084E               	movf	??_fround+3,w
  4993  1563  00B3               	movwf	___flmul@a+2
  4994  1564  084D               	movf	??_fround+2,w
  4995  1565  00B2               	movwf	___flmul@a+1
  4996  1566  084C               	movf	??_fround+1,w
  4997  1567  00B1               	movwf	___flmul@a
  4998  1568  120A  158A  249F  160A  118A  	fcall	___flmul
  4999  156D  1283               	bcf	3,5	;RP0=0, select bank0
  5000  156E  1303               	bcf	3,6	;RP1=0, select bank0
  5001  156F  0830               	movf	?___flmul+3,w
  5002  1570  00CA               	movwf	?_fround+3
  5003  1571  082F               	movf	?___flmul+2,w
  5004  1572  00C9               	movwf	?_fround+2
  5005  1573  082E               	movf	?___flmul+1,w
  5006  1574  00C8               	movwf	?_fround+1
  5007  1575  082D               	movf	?___flmul,w
  5008  1576  00C7               	movwf	?_fround
  5009  1577                     l241:	
  5010  1577  0008               	return
  5011  1578                     __end_of_fround:	
  5012                           
  5013                           	psect	text7
  5014  1C0D                     __ptext7:	
  5015 ;; *************** function ___lwmod *****************
  5016 ;; Defined at:
  5017 ;;		line 5 in file "C:\Program Files (x86)\Microchip\xc8\v2.10\pic\sources\c90\common\lwmod.c"
  5018 ;; Parameters:    Size  Location     Type
  5019 ;;  divisor         2    0[COMMON] unsigned int 
  5020 ;;  dividend        2    2[COMMON] unsigned int 
  5021 ;; Auto vars:     Size  Location     Type
  5022 ;;  counter         1    5[COMMON] unsigned char 
  5023 ;; Return value:  Size  Location     Type
  5024 ;;                  2    0[COMMON] unsigned int 
  5025 ;; Registers used:
  5026 ;;		wreg, status,2, status,0
  5027 ;; Tracked objects:
  5028 ;;		On entry : 0/0
  5029 ;;		On exit  : 0/0
  5030 ;;		Unchanged: 0/0
  5031 ;; Data sizes:     COMMON   BANK0   BANK1   BANK3   BANK2
  5032 ;;      Params:         4       0       0       0       0
  5033 ;;      Locals:         1       0       0       0       0
  5034 ;;      Temps:          1       0       0       0       0
  5035 ;;      Totals:         6       0       0       0       0
  5036 ;;Total ram usage:        6 bytes
  5037 ;; Hardware stack levels used:    1
  5038 ;; This function calls:
  5039 ;;		Nothing
  5040 ;; This function is called by:
  5041 ;;		_fround
  5042 ;; This function uses a non-reentrant model
  5043 ;;
  5044                           
  5045                           
  5046                           ;psect for function ___lwmod
  5047  1C0D                     ___lwmod:	
  5048  1C0D                     l2395:	
  5049                           ;incstack = 0
  5050                           ; Regs used in ___lwmod: [wreg+status,2+status,0]
  5051                           
  5052  1C0D  0870               	movf	___lwmod@divisor,w
  5053  1C0E  0471               	iorwf	___lwmod@divisor+1,w
  5054  1C0F  1903               	btfsc	3,2
  5055  1C10  2C12               	goto	u3371
  5056  1C11  2C13               	goto	u3370
  5057  1C12                     u3371:	
  5058  1C12  2C42               	goto	l2413
  5059  1C13                     u3370:	
  5060  1C13                     l2397:	
  5061  1C13  01F5               	clrf	___lwmod@counter
  5062  1C14  0AF5               	incf	___lwmod@counter,f
  5063  1C15  2C21               	goto	l2403
  5064  1C16                     l2399:	
  5065  1C16  3001               	movlw	1
  5066  1C17                     u3385:	
  5067  1C17  1003               	clrc
  5068  1C18  0DF0               	rlf	___lwmod@divisor,f
  5069  1C19  0DF1               	rlf	___lwmod@divisor+1,f
  5070  1C1A  3EFF               	addlw	-1
  5071  1C1B  1D03               	skipz
  5072  1C1C  2C17               	goto	u3385
  5073  1C1D                     l2401:	
  5074  1C1D  3001               	movlw	1
  5075  1C1E  00F4               	movwf	??___lwmod
  5076  1C1F  0874               	movf	??___lwmod,w
  5077  1C20  07F5               	addwf	___lwmod@counter,f
  5078  1C21                     l2403:	
  5079  1C21  1FF1               	btfss	___lwmod@divisor+1,7
  5080  1C22  2C24               	goto	u3391
  5081  1C23  2C25               	goto	u3390
  5082  1C24                     u3391:	
  5083  1C24  2C16               	goto	l2399
  5084  1C25                     u3390:	
  5085  1C25                     l2405:	
  5086  1C25  0871               	movf	___lwmod@divisor+1,w
  5087  1C26  0273               	subwf	___lwmod@dividend+1,w
  5088  1C27  1D03               	skipz
  5089  1C28  2C2B               	goto	u3405
  5090  1C29  0870               	movf	___lwmod@divisor,w
  5091  1C2A  0272               	subwf	___lwmod@dividend,w
  5092  1C2B                     u3405:	
  5093  1C2B  1C03               	skipc
  5094  1C2C  2C2E               	goto	u3401
  5095  1C2D  2C2F               	goto	u3400
  5096  1C2E                     u3401:	
  5097  1C2E  2C35               	goto	l2409
  5098  1C2F                     u3400:	
  5099  1C2F                     l2407:	
  5100  1C2F  0870               	movf	___lwmod@divisor,w
  5101  1C30  02F2               	subwf	___lwmod@dividend,f
  5102  1C31  0871               	movf	___lwmod@divisor+1,w
  5103  1C32  1C03               	skipc
  5104  1C33  03F3               	decf	___lwmod@dividend+1,f
  5105  1C34  02F3               	subwf	___lwmod@dividend+1,f
  5106  1C35                     l2409:	
  5107  1C35  3001               	movlw	1
  5108  1C36                     u3415:	
  5109  1C36  1003               	clrc
  5110  1C37  0CF1               	rrf	___lwmod@divisor+1,f
  5111  1C38  0CF0               	rrf	___lwmod@divisor,f
  5112  1C39  3EFF               	addlw	-1
  5113  1C3A  1D03               	skipz
  5114  1C3B  2C36               	goto	u3415
  5115  1C3C                     l2411:	
  5116  1C3C  3001               	movlw	1
  5117  1C3D  02F5               	subwf	___lwmod@counter,f
  5118  1C3E  1D03               	btfss	3,2
  5119  1C3F  2C41               	goto	u3421
  5120  1C40  2C42               	goto	u3420
  5121  1C41                     u3421:	
  5122  1C41  2C25               	goto	l2405
  5123  1C42                     u3420:	
  5124  1C42                     l2413:	
  5125  1C42  0873               	movf	___lwmod@dividend+1,w
  5126  1C43  00F1               	movwf	?___lwmod+1
  5127  1C44  0872               	movf	___lwmod@dividend,w
  5128  1C45  00F0               	movwf	?___lwmod
  5129  1C46                     l634:	
  5130  1C46  0008               	return
  5131  1C47                     __end_of___lwmod:	
  5132                           
  5133                           	psect	text8
  5134  1C47                     __ptext8:	
  5135 ;; *************** function ___lwdiv *****************
  5136 ;; Defined at:
  5137 ;;		line 5 in file "C:\Program Files (x86)\Microchip\xc8\v2.10\pic\sources\c90\common\lwdiv.c"
  5138 ;; Parameters:    Size  Location     Type
  5139 ;;  divisor         2    6[COMMON] unsigned int 
  5140 ;;  dividend        2    8[COMMON] unsigned int 
  5141 ;; Auto vars:     Size  Location     Type
  5142 ;;  quotient        2   11[COMMON] unsigned int 
  5143 ;;  counter         1   13[COMMON] unsigned char 
  5144 ;; Return value:  Size  Location     Type
  5145 ;;                  2    6[COMMON] unsigned int 
  5146 ;; Registers used:
  5147 ;;		wreg, status,2, status,0
  5148 ;; Tracked objects:
  5149 ;;		On entry : 0/0
  5150 ;;		On exit  : 0/0
  5151 ;;		Unchanged: 0/0
  5152 ;; Data sizes:     COMMON   BANK0   BANK1   BANK3   BANK2
  5153 ;;      Params:         4       0       0       0       0
  5154 ;;      Locals:         3       0       0       0       0
  5155 ;;      Temps:          1       0       0       0       0
  5156 ;;      Totals:         8       0       0       0       0
  5157 ;;Total ram usage:        8 bytes
  5158 ;; Hardware stack levels used:    1
  5159 ;; This function calls:
  5160 ;;		Nothing
  5161 ;; This function is called by:
  5162 ;;		_fround
  5163 ;; This function uses a non-reentrant model
  5164 ;;
  5165                           
  5166                           
  5167                           ;psect for function ___lwdiv
  5168  1C47                     ___lwdiv:	
  5169  1C47                     l2369:	
  5170                           ;incstack = 0
  5171                           ; Regs used in ___lwdiv: [wreg+status,2+status,0]
  5172                           
  5173  1C47  01FB               	clrf	___lwdiv@quotient
  5174  1C48  01FC               	clrf	___lwdiv@quotient+1
  5175  1C49                     l2371:	
  5176  1C49  0876               	movf	___lwdiv@divisor,w
  5177  1C4A  0477               	iorwf	___lwdiv@divisor+1,w
  5178  1C4B  1903               	btfsc	3,2
  5179  1C4C  2C4E               	goto	u3301
  5180  1C4D  2C4F               	goto	u3300
  5181  1C4E                     u3301:	
  5182  1C4E  2C86               	goto	l2391
  5183  1C4F                     u3300:	
  5184  1C4F                     l2373:	
  5185  1C4F  01FD               	clrf	___lwdiv@counter
  5186  1C50  0AFD               	incf	___lwdiv@counter,f
  5187  1C51  2C5D               	goto	l2379
  5188  1C52                     l2375:	
  5189  1C52  3001               	movlw	1
  5190  1C53                     u3315:	
  5191  1C53  1003               	clrc
  5192  1C54  0DF6               	rlf	___lwdiv@divisor,f
  5193  1C55  0DF7               	rlf	___lwdiv@divisor+1,f
  5194  1C56  3EFF               	addlw	-1
  5195  1C57  1D03               	skipz
  5196  1C58  2C53               	goto	u3315
  5197  1C59                     l2377:	
  5198  1C59  3001               	movlw	1
  5199  1C5A  00FA               	movwf	??___lwdiv
  5200  1C5B  087A               	movf	??___lwdiv,w
  5201  1C5C  07FD               	addwf	___lwdiv@counter,f
  5202  1C5D                     l2379:	
  5203  1C5D  1FF7               	btfss	___lwdiv@divisor+1,7
  5204  1C5E  2C60               	goto	u3321
  5205  1C5F  2C61               	goto	u3320
  5206  1C60                     u3321:	
  5207  1C60  2C52               	goto	l2375
  5208  1C61                     u3320:	
  5209  1C61                     l2381:	
  5210  1C61  3001               	movlw	1
  5211  1C62                     u3335:	
  5212  1C62  1003               	clrc
  5213  1C63  0DFB               	rlf	___lwdiv@quotient,f
  5214  1C64  0DFC               	rlf	___lwdiv@quotient+1,f
  5215  1C65  3EFF               	addlw	-1
  5216  1C66  1D03               	skipz
  5217  1C67  2C62               	goto	u3335
  5218  1C68  0877               	movf	___lwdiv@divisor+1,w
  5219  1C69  0279               	subwf	___lwdiv@dividend+1,w
  5220  1C6A  1D03               	skipz
  5221  1C6B  2C6E               	goto	u3345
  5222  1C6C  0876               	movf	___lwdiv@divisor,w
  5223  1C6D  0278               	subwf	___lwdiv@dividend,w
  5224  1C6E                     u3345:	
  5225  1C6E  1C03               	skipc
  5226  1C6F  2C71               	goto	u3341
  5227  1C70  2C72               	goto	u3340
  5228  1C71                     u3341:	
  5229  1C71  2C79               	goto	l2387
  5230  1C72                     u3340:	
  5231  1C72                     l2383:	
  5232  1C72  0876               	movf	___lwdiv@divisor,w
  5233  1C73  02F8               	subwf	___lwdiv@dividend,f
  5234  1C74  0877               	movf	___lwdiv@divisor+1,w
  5235  1C75  1C03               	skipc
  5236  1C76  03F9               	decf	___lwdiv@dividend+1,f
  5237  1C77  02F9               	subwf	___lwdiv@dividend+1,f
  5238  1C78                     l2385:	
  5239  1C78  147B               	bsf	___lwdiv@quotient,0
  5240  1C79                     l2387:	
  5241  1C79  3001               	movlw	1
  5242  1C7A                     u3355:	
  5243  1C7A  1003               	clrc
  5244  1C7B  0CF7               	rrf	___lwdiv@divisor+1,f
  5245  1C7C  0CF6               	rrf	___lwdiv@divisor,f
  5246  1C7D  3EFF               	addlw	-1
  5247  1C7E  1D03               	skipz
  5248  1C7F  2C7A               	goto	u3355
  5249  1C80                     l2389:	
  5250  1C80  3001               	movlw	1
  5251  1C81  02FD               	subwf	___lwdiv@counter,f
  5252  1C82  1D03               	btfss	3,2
  5253  1C83  2C85               	goto	u3361
  5254  1C84  2C86               	goto	u3360
  5255  1C85                     u3361:	
  5256  1C85  2C61               	goto	l2381
  5257  1C86                     u3360:	
  5258  1C86                     l2391:	
  5259  1C86  087C               	movf	___lwdiv@quotient+1,w
  5260  1C87  00F7               	movwf	?___lwdiv+1
  5261  1C88  087B               	movf	___lwdiv@quotient,w
  5262  1C89  00F6               	movwf	?___lwdiv
  5263  1C8A                     l624:	
  5264  1C8A  0008               	return
  5265  1C8B                     __end_of___lwdiv:	
  5266                           
  5267                           	psect	text9
  5268  100F                     __ptext9:	
  5269 ;; *************** function __tdiv_to_l_ *****************
  5270 ;; Defined at:
  5271 ;;		line 60 in file "C:\Program Files (x86)\Microchip\xc8\v2.10\pic\sources\c90\common\ftdivl.c"
  5272 ;; Parameters:    Size  Location     Type
  5273 ;;  f1              4    0[COMMON] float 
  5274 ;;  f2              4    4[COMMON] float 
  5275 ;; Auto vars:     Size  Location     Type
  5276 ;;  quot            4    0[BANK0 ] unsigned long 
  5277 ;;  exp1            1    5[BANK0 ] unsigned char 
  5278 ;;  cntr            1    4[BANK0 ] unsigned char 
  5279 ;; Return value:  Size  Location     Type
  5280 ;;                  4    0[COMMON] unsigned long 
  5281 ;; Registers used:
  5282 ;;		wreg, status,2, status,0
  5283 ;; Tracked objects:
  5284 ;;		On entry : 0/0
  5285 ;;		On exit  : 0/0
  5286 ;;		Unchanged: 0/0
  5287 ;; Data sizes:     COMMON   BANK0   BANK1   BANK3   BANK2
  5288 ;;      Params:         8       0       0       0       0
  5289 ;;      Locals:         0       6       0       0       0
  5290 ;;      Temps:          4       0       0       0       0
  5291 ;;      Totals:        12       6       0       0       0
  5292 ;;Total ram usage:       18 bytes
  5293 ;; Hardware stack levels used:    1
  5294 ;; This function calls:
  5295 ;;		Nothing
  5296 ;; This function is called by:
  5297 ;;		_sprintf
  5298 ;; This function uses a non-reentrant model
  5299 ;;
  5300                           
  5301                           
  5302                           ;psect for function __tdiv_to_l_
  5303  100F                     __tdiv_to_l_:	
  5304  100F                     l2825:	
  5305                           ;incstack = 0
  5306                           ; Regs used in __tdiv_to_l_: [wreg+status,2+status,0]
  5307                           
  5308  100F  0870               	movf	__tdiv_to_l_@f1,w
  5309  1010  00F8               	movwf	??__tdiv_to_l_
  5310  1011  0871               	movf	__tdiv_to_l_@f1+1,w
  5311  1012  00F9               	movwf	??__tdiv_to_l_+1
  5312  1013  0872               	movf	__tdiv_to_l_@f1+2,w
  5313  1014  00FA               	movwf	??__tdiv_to_l_+2
  5314  1015  1003               	clrc
  5315  1016  0D79               	rlf	??__tdiv_to_l_+1,w
  5316  1017  0D7A               	rlf	??__tdiv_to_l_+2,w
  5317  1018  00FB               	movwf	??__tdiv_to_l_+3
  5318  1019  087B               	movf	??__tdiv_to_l_+3,w
  5319  101A  1283               	bcf	3,5	;RP0=0, select bank0
  5320  101B  1303               	bcf	3,6	;RP1=0, select bank0
  5321  101C  00A5               	movwf	__tdiv_to_l_@exp1
  5322  101D  0825               	movf	__tdiv_to_l_@exp1,w
  5323  101E  1D03               	btfss	3,2
  5324  101F  2821               	goto	u4551
  5325  1020  2822               	goto	u4550
  5326  1021                     u4551:	
  5327  1021  282B               	goto	l2831
  5328  1022                     u4550:	
  5329  1022                     l2827:	
  5330  1022  3000               	movlw	0
  5331  1023  00F3               	movwf	?__tdiv_to_l_+3
  5332  1024  3000               	movlw	0
  5333  1025  00F2               	movwf	?__tdiv_to_l_+2
  5334  1026  3000               	movlw	0
  5335  1027  00F1               	movwf	?__tdiv_to_l_+1
  5336  1028  3000               	movlw	0
  5337  1029  00F0               	movwf	?__tdiv_to_l_
  5338  102A  28CB               	goto	l535
  5339  102B                     l2831:	
  5340  102B  0874               	movf	__tdiv_to_l_@f2,w
  5341  102C  00F8               	movwf	??__tdiv_to_l_
  5342  102D  0875               	movf	__tdiv_to_l_@f2+1,w
  5343  102E  00F9               	movwf	??__tdiv_to_l_+1
  5344  102F  0876               	movf	__tdiv_to_l_@f2+2,w
  5345  1030  00FA               	movwf	??__tdiv_to_l_+2
  5346  1031  1003               	clrc
  5347  1032  0D79               	rlf	??__tdiv_to_l_+1,w
  5348  1033  0D7A               	rlf	??__tdiv_to_l_+2,w
  5349  1034  00FB               	movwf	??__tdiv_to_l_+3
  5350  1035  087B               	movf	??__tdiv_to_l_+3,w
  5351  1036  00A4               	movwf	__tdiv_to_l_@cntr
  5352  1037  0824               	movf	__tdiv_to_l_@cntr,w
  5353  1038  1D03               	btfss	3,2
  5354  1039  283B               	goto	u4561
  5355  103A  283C               	goto	u4560
  5356  103B                     u4561:	
  5357  103B  283D               	goto	l536
  5358  103C                     u4560:	
  5359  103C  2822               	goto	l2827
  5360  103D                     l536:	
  5361  103D  17F1               	bsf	__tdiv_to_l_@f1+1,7
  5362  103E                     l2837:	
  5363  103E  30FF               	movlw	255
  5364  103F  05F0               	andwf	__tdiv_to_l_@f1,f
  5365  1040  30FF               	movlw	255
  5366  1041  05F1               	andwf	__tdiv_to_l_@f1+1,f
  5367  1042  3000               	movlw	0
  5368  1043  05F2               	andwf	__tdiv_to_l_@f1+2,f
  5369  1044                     l2839:	
  5370  1044  17F5               	bsf	__tdiv_to_l_@f2+1,7
  5371  1045  30FF               	movlw	255
  5372  1046  05F4               	andwf	__tdiv_to_l_@f2,f
  5373  1047  30FF               	movlw	255
  5374  1048  05F5               	andwf	__tdiv_to_l_@f2+1,f
  5375  1049  3000               	movlw	0
  5376  104A  05F6               	andwf	__tdiv_to_l_@f2+2,f
  5377  104B  3000               	movlw	0
  5378  104C  00A3               	movwf	__tdiv_to_l_@quot+3
  5379  104D  3000               	movlw	0
  5380  104E  00A2               	movwf	__tdiv_to_l_@quot+2
  5381  104F  3000               	movlw	0
  5382  1050  00A1               	movwf	__tdiv_to_l_@quot+1
  5383  1051  3000               	movlw	0
  5384  1052  00A0               	movwf	__tdiv_to_l_@quot
  5385  1053                     l2841:	
  5386  1053  307F               	movlw	127
  5387  1054  02A5               	subwf	__tdiv_to_l_@exp1,f
  5388  1055                     l2843:	
  5389  1055  3098               	movlw	152
  5390  1056  0724               	addwf	__tdiv_to_l_@cntr,w
  5391  1057  00F8               	movwf	??__tdiv_to_l_
  5392  1058  0878               	movf	??__tdiv_to_l_,w
  5393  1059  02A5               	subwf	__tdiv_to_l_@exp1,f
  5394  105A  3018               	movlw	24
  5395  105B  00F8               	movwf	??__tdiv_to_l_
  5396  105C  0878               	movf	??__tdiv_to_l_,w
  5397  105D  00A4               	movwf	__tdiv_to_l_@cntr
  5398  105E                     l2845:	
  5399  105E  3001               	movlw	1
  5400  105F  00F8               	movwf	??__tdiv_to_l_
  5401  1060                     u4575:	
  5402  1060  1003               	clrc
  5403  1061  0DA0               	rlf	__tdiv_to_l_@quot,f
  5404  1062  0DA1               	rlf	__tdiv_to_l_@quot+1,f
  5405  1063  0DA2               	rlf	__tdiv_to_l_@quot+2,f
  5406  1064  0DA3               	rlf	__tdiv_to_l_@quot+3,f
  5407  1065  0BF8               	decfsz	??__tdiv_to_l_,f
  5408  1066  2860               	goto	u4575
  5409  1067                     l2847:	
  5410  1067  0876               	movf	__tdiv_to_l_@f2+2,w
  5411  1068  0272               	subwf	__tdiv_to_l_@f1+2,w
  5412  1069  1D03               	skipz
  5413  106A  2871               	goto	u4585
  5414  106B  0875               	movf	__tdiv_to_l_@f2+1,w
  5415  106C  0271               	subwf	__tdiv_to_l_@f1+1,w
  5416  106D  1D03               	skipz
  5417  106E  2871               	goto	u4585
  5418  106F  0874               	movf	__tdiv_to_l_@f2,w
  5419  1070  0270               	subwf	__tdiv_to_l_@f1,w
  5420  1071                     u4585:	
  5421  1071  1C03               	skipc
  5422  1072  2874               	goto	u4581
  5423  1073  2875               	goto	u4580
  5424  1074                     u4581:	
  5425  1074  2880               	goto	l2853
  5426  1075                     u4580:	
  5427  1075                     l2849:	
  5428  1075  0874               	movf	__tdiv_to_l_@f2,w
  5429  1076  02F0               	subwf	__tdiv_to_l_@f1,f
  5430  1077  0875               	movf	__tdiv_to_l_@f2+1,w
  5431  1078  1C03               	skipc
  5432  1079  0F75               	incfsz	__tdiv_to_l_@f2+1,w
  5433  107A  02F1               	subwf	__tdiv_to_l_@f1+1,f
  5434  107B  0876               	movf	__tdiv_to_l_@f2+2,w
  5435  107C  1C03               	skipc
  5436  107D  0A76               	incf	__tdiv_to_l_@f2+2,w
  5437  107E  02F2               	subwf	__tdiv_to_l_@f1+2,f
  5438  107F                     l2851:	
  5439  107F  1420               	bsf	__tdiv_to_l_@quot,0
  5440  1080                     l2853:	
  5441  1080  3001               	movlw	1
  5442  1081                     u4595:	
  5443  1081  1003               	clrc
  5444  1082  0DF0               	rlf	__tdiv_to_l_@f1,f
  5445  1083  0DF1               	rlf	__tdiv_to_l_@f1+1,f
  5446  1084  0DF2               	rlf	__tdiv_to_l_@f1+2,f
  5447  1085  3EFF               	addlw	-1
  5448  1086  1D03               	skipz
  5449  1087  2881               	goto	u4595
  5450  1088                     l2855:	
  5451  1088  3001               	movlw	1
  5452  1089  02A4               	subwf	__tdiv_to_l_@cntr,f
  5453  108A  1D03               	btfss	3,2
  5454  108B  288D               	goto	u4601
  5455  108C  288E               	goto	u4600
  5456  108D                     u4601:	
  5457  108D  285E               	goto	l2845
  5458  108E                     u4600:	
  5459  108E                     l539:	
  5460  108E  1FA5               	btfss	__tdiv_to_l_@exp1,7
  5461  108F  2891               	goto	u4611
  5462  1090  2892               	goto	u4610
  5463  1091                     u4611:	
  5464  1091  28AC               	goto	l2865
  5465  1092                     u4610:	
  5466  1092                     l2857:	
  5467  1092  0825               	movf	__tdiv_to_l_@exp1,w
  5468  1093  3A80               	xorlw	128
  5469  1094  3E97               	addlw	151
  5470  1095  1803               	skipnc
  5471  1096  2898               	goto	u4621
  5472  1097  2899               	goto	u4620
  5473  1098                     u4621:	
  5474  1098  289A               	goto	l2863
  5475  1099                     u4620:	
  5476  1099  2822               	goto	l2827
  5477  109A                     l2863:	
  5478  109A  3001               	movlw	1
  5479  109B                     u4635:	
  5480  109B  1003               	clrc
  5481  109C  0CA3               	rrf	__tdiv_to_l_@quot+3,f
  5482  109D  0CA2               	rrf	__tdiv_to_l_@quot+2,f
  5483  109E  0CA1               	rrf	__tdiv_to_l_@quot+1,f
  5484  109F  0CA0               	rrf	__tdiv_to_l_@quot,f
  5485  10A0  3EFF               	addlw	-1
  5486  10A1  1D03               	skipz
  5487  10A2  289B               	goto	u4635
  5488  10A3  3001               	movlw	1
  5489  10A4  00F8               	movwf	??__tdiv_to_l_
  5490  10A5  0878               	movf	??__tdiv_to_l_,w
  5491  10A6  07A5               	addwf	__tdiv_to_l_@exp1,f
  5492  10A7  1D03               	btfss	3,2
  5493  10A8  28AA               	goto	u4641
  5494  10A9  28AB               	goto	u4640
  5495  10AA                     u4641:	
  5496  10AA  289A               	goto	l2863
  5497  10AB                     u4640:	
  5498  10AB  28C3               	goto	l2873
  5499  10AC                     l2865:	
  5500  10AC  3018               	movlw	24
  5501  10AD  0225               	subwf	__tdiv_to_l_@exp1,w
  5502  10AE  1C03               	skipc
  5503  10AF  28B1               	goto	u4651
  5504  10B0  28B2               	goto	u4650
  5505  10B1                     u4651:	
  5506  10B1  28BE               	goto	l546
  5507  10B2                     u4650:	
  5508  10B2  2822               	goto	l2827
  5509  10B3                     l2871:	
  5510  10B3  3001               	movlw	1
  5511  10B4  00F8               	movwf	??__tdiv_to_l_
  5512  10B5                     u4665:	
  5513  10B5  1003               	clrc
  5514  10B6  0DA0               	rlf	__tdiv_to_l_@quot,f
  5515  10B7  0DA1               	rlf	__tdiv_to_l_@quot+1,f
  5516  10B8  0DA2               	rlf	__tdiv_to_l_@quot+2,f
  5517  10B9  0DA3               	rlf	__tdiv_to_l_@quot+3,f
  5518  10BA  0BF8               	decfsz	??__tdiv_to_l_,f
  5519  10BB  28B5               	goto	u4665
  5520  10BC  3001               	movlw	1
  5521  10BD  02A5               	subwf	__tdiv_to_l_@exp1,f
  5522  10BE                     l546:	
  5523  10BE  0825               	movf	__tdiv_to_l_@exp1,w
  5524  10BF  1D03               	btfss	3,2
  5525  10C0  28C2               	goto	u4671
  5526  10C1  28C3               	goto	u4670
  5527  10C2                     u4671:	
  5528  10C2  28B3               	goto	l2871
  5529  10C3                     u4670:	
  5530  10C3                     l2873:	
  5531  10C3  0823               	movf	__tdiv_to_l_@quot+3,w
  5532  10C4  00F3               	movwf	?__tdiv_to_l_+3
  5533  10C5  0822               	movf	__tdiv_to_l_@quot+2,w
  5534  10C6  00F2               	movwf	?__tdiv_to_l_+2
  5535  10C7  0821               	movf	__tdiv_to_l_@quot+1,w
  5536  10C8  00F1               	movwf	?__tdiv_to_l_+1
  5537  10C9  0820               	movf	__tdiv_to_l_@quot,w
  5538  10CA  00F0               	movwf	?__tdiv_to_l_
  5539  10CB                     l535:	
  5540  10CB  0008               	return
  5541  10CC                     __end_of__tdiv_to_l_:	
  5542                           
  5543                           	psect	text10
  5544  10CC                     __ptext10:	
  5545 ;; *************** function __div_to_l_ *****************
  5546 ;; Defined at:
  5547 ;;		line 60 in file "C:\Program Files (x86)\Microchip\xc8\v2.10\pic\sources\c90\common\fldivl.c"
  5548 ;; Parameters:    Size  Location     Type
  5549 ;;  f1              4    0[COMMON] unsigned long 
  5550 ;;  f2              4    4[COMMON] unsigned long 
  5551 ;; Auto vars:     Size  Location     Type
  5552 ;;  quot            4    0[BANK0 ] unsigned long 
  5553 ;;  exp1            1    5[BANK0 ] unsigned char 
  5554 ;;  cntr            1    4[BANK0 ] unsigned char 
  5555 ;; Return value:  Size  Location     Type
  5556 ;;                  4    0[COMMON] unsigned long 
  5557 ;; Registers used:
  5558 ;;		wreg, status,2, status,0
  5559 ;; Tracked objects:
  5560 ;;		On entry : 0/0
  5561 ;;		On exit  : 0/0
  5562 ;;		Unchanged: 0/0
  5563 ;; Data sizes:     COMMON   BANK0   BANK1   BANK3   BANK2
  5564 ;;      Params:         8       0       0       0       0
  5565 ;;      Locals:         0       6       0       0       0
  5566 ;;      Temps:          1       0       0       0       0
  5567 ;;      Totals:         9       6       0       0       0
  5568 ;;Total ram usage:       15 bytes
  5569 ;; Hardware stack levels used:    1
  5570 ;; This function calls:
  5571 ;;		Nothing
  5572 ;; This function is called by:
  5573 ;;		_sprintf
  5574 ;; This function uses a non-reentrant model
  5575 ;;
  5576                           
  5577                           
  5578                           ;psect for function __div_to_l_
  5579  10CC                     __div_to_l_:	
  5580  10CC                     l2877:	
  5581                           ;incstack = 0
  5582                           ; Regs used in __div_to_l_: [wreg+status,2+status,0]
  5583                           
  5584  10CC  1003               	clrc
  5585  10CD  0D72               	rlf	__div_to_l_@f1+2,w
  5586  10CE  0D73               	rlf	__div_to_l_@f1+3,w
  5587  10CF  00F8               	movwf	??__div_to_l_
  5588  10D0  0878               	movf	??__div_to_l_,w
  5589  10D1  1283               	bcf	3,5	;RP0=0, select bank0
  5590  10D2  1303               	bcf	3,6	;RP1=0, select bank0
  5591  10D3  00A5               	movwf	__div_to_l_@exp1
  5592  10D4  0825               	movf	__div_to_l_@exp1,w
  5593  10D5  1D03               	btfss	3,2
  5594  10D6  28D8               	goto	u4681
  5595  10D7  28D9               	goto	u4680
  5596  10D8                     u4681:	
  5597  10D8  28E2               	goto	l2883
  5598  10D9                     u4680:	
  5599  10D9                     l2879:	
  5600  10D9  3000               	movlw	0
  5601  10DA  00F3               	movwf	?__div_to_l_+3
  5602  10DB  3000               	movlw	0
  5603  10DC  00F2               	movwf	?__div_to_l_+2
  5604  10DD  3000               	movlw	0
  5605  10DE  00F1               	movwf	?__div_to_l_+1
  5606  10DF  3000               	movlw	0
  5607  10E0  00F0               	movwf	?__div_to_l_
  5608  10E1  2989               	goto	l488
  5609  10E2                     l2883:	
  5610  10E2  1003               	clrc
  5611  10E3  0D76               	rlf	__div_to_l_@f2+2,w
  5612  10E4  0D77               	rlf	__div_to_l_@f2+3,w
  5613  10E5  00F8               	movwf	??__div_to_l_
  5614  10E6  0878               	movf	??__div_to_l_,w
  5615  10E7  00A4               	movwf	__div_to_l_@cntr
  5616  10E8  0824               	movf	__div_to_l_@cntr,w
  5617  10E9  1D03               	btfss	3,2
  5618  10EA  28EC               	goto	u4691
  5619  10EB  28ED               	goto	u4690
  5620  10EC                     u4691:	
  5621  10EC  28EE               	goto	l489
  5622  10ED                     u4690:	
  5623  10ED  28D9               	goto	l2879
  5624  10EE                     l489:	
  5625  10EE  17F2               	bsf	__div_to_l_@f1+2,7
  5626  10EF                     l2889:	
  5627  10EF  30FF               	movlw	255
  5628  10F0  05F0               	andwf	__div_to_l_@f1,f
  5629  10F1  30FF               	movlw	255
  5630  10F2  05F1               	andwf	__div_to_l_@f1+1,f
  5631  10F3  30FF               	movlw	255
  5632  10F4  05F2               	andwf	__div_to_l_@f1+2,f
  5633  10F5  3000               	movlw	0
  5634  10F6  05F3               	andwf	__div_to_l_@f1+3,f
  5635  10F7                     l2891:	
  5636  10F7  17F6               	bsf	__div_to_l_@f2+2,7
  5637  10F8  30FF               	movlw	255
  5638  10F9  05F4               	andwf	__div_to_l_@f2,f
  5639  10FA  30FF               	movlw	255
  5640  10FB  05F5               	andwf	__div_to_l_@f2+1,f
  5641  10FC  30FF               	movlw	255
  5642  10FD  05F6               	andwf	__div_to_l_@f2+2,f
  5643  10FE  3000               	movlw	0
  5644  10FF  05F7               	andwf	__div_to_l_@f2+3,f
  5645  1100  3000               	movlw	0
  5646  1101  00A3               	movwf	__div_to_l_@quot+3
  5647  1102  3000               	movlw	0
  5648  1103  00A2               	movwf	__div_to_l_@quot+2
  5649  1104  3000               	movlw	0
  5650  1105  00A1               	movwf	__div_to_l_@quot+1
  5651  1106  3000               	movlw	0
  5652  1107  00A0               	movwf	__div_to_l_@quot
  5653  1108                     l2893:	
  5654  1108  307F               	movlw	127
  5655  1109  02A5               	subwf	__div_to_l_@exp1,f
  5656  110A                     l2895:	
  5657  110A  30A0               	movlw	160
  5658  110B  0724               	addwf	__div_to_l_@cntr,w
  5659  110C  00F8               	movwf	??__div_to_l_
  5660  110D  0878               	movf	??__div_to_l_,w
  5661  110E  02A5               	subwf	__div_to_l_@exp1,f
  5662  110F  3020               	movlw	32
  5663  1110  00F8               	movwf	??__div_to_l_
  5664  1111  0878               	movf	??__div_to_l_,w
  5665  1112  00A4               	movwf	__div_to_l_@cntr
  5666  1113                     l2897:	
  5667  1113  3001               	movlw	1
  5668  1114  00F8               	movwf	??__div_to_l_
  5669  1115                     u4705:	
  5670  1115  1003               	clrc
  5671  1116  0DA0               	rlf	__div_to_l_@quot,f
  5672  1117  0DA1               	rlf	__div_to_l_@quot+1,f
  5673  1118  0DA2               	rlf	__div_to_l_@quot+2,f
  5674  1119  0DA3               	rlf	__div_to_l_@quot+3,f
  5675  111A  0BF8               	decfsz	??__div_to_l_,f
  5676  111B  2915               	goto	u4705
  5677  111C                     l2899:	
  5678  111C  0877               	movf	__div_to_l_@f2+3,w
  5679  111D  0273               	subwf	__div_to_l_@f1+3,w
  5680  111E  1D03               	skipz
  5681  111F  292A               	goto	u4715
  5682  1120  0876               	movf	__div_to_l_@f2+2,w
  5683  1121  0272               	subwf	__div_to_l_@f1+2,w
  5684  1122  1D03               	skipz
  5685  1123  292A               	goto	u4715
  5686  1124  0875               	movf	__div_to_l_@f2+1,w
  5687  1125  0271               	subwf	__div_to_l_@f1+1,w
  5688  1126  1D03               	skipz
  5689  1127  292A               	goto	u4715
  5690  1128  0874               	movf	__div_to_l_@f2,w
  5691  1129  0270               	subwf	__div_to_l_@f1,w
  5692  112A                     u4715:	
  5693  112A  1C03               	skipc
  5694  112B  292D               	goto	u4711
  5695  112C  292E               	goto	u4710
  5696  112D                     u4711:	
  5697  112D  293D               	goto	l2905
  5698  112E                     u4710:	
  5699  112E                     l2901:	
  5700  112E  0874               	movf	__div_to_l_@f2,w
  5701  112F  02F0               	subwf	__div_to_l_@f1,f
  5702  1130  0875               	movf	__div_to_l_@f2+1,w
  5703  1131  1C03               	skipc
  5704  1132  0F75               	incfsz	__div_to_l_@f2+1,w
  5705  1133  02F1               	subwf	__div_to_l_@f1+1,f
  5706  1134  0876               	movf	__div_to_l_@f2+2,w
  5707  1135  1C03               	skipc
  5708  1136  0F76               	incfsz	__div_to_l_@f2+2,w
  5709  1137  02F2               	subwf	__div_to_l_@f1+2,f
  5710  1138  0877               	movf	__div_to_l_@f2+3,w
  5711  1139  1C03               	skipc
  5712  113A  0F77               	incfsz	__div_to_l_@f2+3,w
  5713  113B  02F3               	subwf	__div_to_l_@f1+3,f
  5714  113C                     l2903:	
  5715  113C  1420               	bsf	__div_to_l_@quot,0
  5716  113D                     l2905:	
  5717  113D  3001               	movlw	1
  5718  113E  00F8               	movwf	??__div_to_l_
  5719  113F                     u4725:	
  5720  113F  1003               	clrc
  5721  1140  0DF0               	rlf	__div_to_l_@f1,f
  5722  1141  0DF1               	rlf	__div_to_l_@f1+1,f
  5723  1142  0DF2               	rlf	__div_to_l_@f1+2,f
  5724  1143  0DF3               	rlf	__div_to_l_@f1+3,f
  5725  1144  0BF8               	decfsz	??__div_to_l_,f
  5726  1145  293F               	goto	u4725
  5727  1146                     l2907:	
  5728  1146  3001               	movlw	1
  5729  1147  02A4               	subwf	__div_to_l_@cntr,f
  5730  1148  1D03               	btfss	3,2
  5731  1149  294B               	goto	u4731
  5732  114A  294C               	goto	u4730
  5733  114B                     u4731:	
  5734  114B  2913               	goto	l2897
  5735  114C                     u4730:	
  5736  114C                     l492:	
  5737  114C  1FA5               	btfss	__div_to_l_@exp1,7
  5738  114D  294F               	goto	u4741
  5739  114E  2950               	goto	u4740
  5740  114F                     u4741:	
  5741  114F  296A               	goto	l2917
  5742  1150                     u4740:	
  5743  1150                     l2909:	
  5744  1150  0825               	movf	__div_to_l_@exp1,w
  5745  1151  3A80               	xorlw	128
  5746  1152  3E9F               	addlw	159
  5747  1153  1803               	skipnc
  5748  1154  2956               	goto	u4751
  5749  1155  2957               	goto	u4750
  5750  1156                     u4751:	
  5751  1156  2958               	goto	l2915
  5752  1157                     u4750:	
  5753  1157  28D9               	goto	l2879
  5754  1158                     l2915:	
  5755  1158  3001               	movlw	1
  5756  1159                     u4765:	
  5757  1159  1003               	clrc
  5758  115A  0CA3               	rrf	__div_to_l_@quot+3,f
  5759  115B  0CA2               	rrf	__div_to_l_@quot+2,f
  5760  115C  0CA1               	rrf	__div_to_l_@quot+1,f
  5761  115D  0CA0               	rrf	__div_to_l_@quot,f
  5762  115E  3EFF               	addlw	-1
  5763  115F  1D03               	skipz
  5764  1160  2959               	goto	u4765
  5765  1161  3001               	movlw	1
  5766  1162  00F8               	movwf	??__div_to_l_
  5767  1163  0878               	movf	??__div_to_l_,w
  5768  1164  07A5               	addwf	__div_to_l_@exp1,f
  5769  1165  1D03               	btfss	3,2
  5770  1166  2968               	goto	u4771
  5771  1167  2969               	goto	u4770
  5772  1168                     u4771:	
  5773  1168  2958               	goto	l2915
  5774  1169                     u4770:	
  5775  1169  2981               	goto	l2925
  5776  116A                     l2917:	
  5777  116A  3020               	movlw	32
  5778  116B  0225               	subwf	__div_to_l_@exp1,w
  5779  116C  1C03               	skipc
  5780  116D  296F               	goto	u4781
  5781  116E  2970               	goto	u4780
  5782  116F                     u4781:	
  5783  116F  297C               	goto	l499
  5784  1170                     u4780:	
  5785  1170  28D9               	goto	l2879
  5786  1171                     l2923:	
  5787  1171  3001               	movlw	1
  5788  1172  00F8               	movwf	??__div_to_l_
  5789  1173                     u4795:	
  5790  1173  1003               	clrc
  5791  1174  0DA0               	rlf	__div_to_l_@quot,f
  5792  1175  0DA1               	rlf	__div_to_l_@quot+1,f
  5793  1176  0DA2               	rlf	__div_to_l_@quot+2,f
  5794  1177  0DA3               	rlf	__div_to_l_@quot+3,f
  5795  1178  0BF8               	decfsz	??__div_to_l_,f
  5796  1179  2973               	goto	u4795
  5797  117A  3001               	movlw	1
  5798  117B  02A5               	subwf	__div_to_l_@exp1,f
  5799  117C                     l499:	
  5800  117C  0825               	movf	__div_to_l_@exp1,w
  5801  117D  1D03               	btfss	3,2
  5802  117E  2980               	goto	u4801
  5803  117F  2981               	goto	u4800
  5804  1180                     u4801:	
  5805  1180  2971               	goto	l2923
  5806  1181                     u4800:	
  5807  1181                     l2925:	
  5808  1181  0823               	movf	__div_to_l_@quot+3,w
  5809  1182  00F3               	movwf	?__div_to_l_+3
  5810  1183  0822               	movf	__div_to_l_@quot+2,w
  5811  1184  00F2               	movwf	?__div_to_l_+2
  5812  1185  0821               	movf	__div_to_l_@quot+1,w
  5813  1186  00F1               	movwf	?__div_to_l_+1
  5814  1187  0820               	movf	__div_to_l_@quot,w
  5815  1188  00F0               	movwf	?__div_to_l_
  5816  1189                     l488:	
  5817  1189  0008               	return
  5818  118A                     __end_of__div_to_l_:	
  5819                           
  5820                           	psect	text11
  5821  1B9B                     __ptext11:	
  5822 ;; *************** function ___wmul *****************
  5823 ;; Defined at:
  5824 ;;		line 15 in file "C:\Program Files (x86)\Microchip\xc8\v2.10\pic\sources\c90\common\Umul16.c"
  5825 ;; Parameters:    Size  Location     Type
  5826 ;;  multiplier      2    0[COMMON] unsigned int 
  5827 ;;  multiplicand    2    2[COMMON] unsigned int 
  5828 ;; Auto vars:     Size  Location     Type
  5829 ;;  product         2    4[COMMON] unsigned int 
  5830 ;; Return value:  Size  Location     Type
  5831 ;;                  2    0[COMMON] unsigned int 
  5832 ;; Registers used:
  5833 ;;		wreg, status,2, status,0
  5834 ;; Tracked objects:
  5835 ;;		On entry : 0/0
  5836 ;;		On exit  : 0/0
  5837 ;;		Unchanged: 0/0
  5838 ;; Data sizes:     COMMON   BANK0   BANK1   BANK3   BANK2
  5839 ;;      Params:         4       0       0       0       0
  5840 ;;      Locals:         2       0       0       0       0
  5841 ;;      Temps:          0       0       0       0       0
  5842 ;;      Totals:         6       0       0       0       0
  5843 ;;Total ram usage:        6 bytes
  5844 ;; Hardware stack levels used:    1
  5845 ;; This function calls:
  5846 ;;		Nothing
  5847 ;; This function is called by:
  5848 ;;		_sprintf
  5849 ;; This function uses a non-reentrant model
  5850 ;;
  5851                           
  5852                           
  5853                           ;psect for function ___wmul
  5854  1B9B                     ___wmul:	
  5855  1B9B                     l2929:	
  5856                           ;incstack = 0
  5857                           ; Regs used in ___wmul: [wreg+status,2+status,0]
  5858                           
  5859  1B9B  01F4               	clrf	___wmul@product
  5860  1B9C  01F5               	clrf	___wmul@product+1
  5861  1B9D                     l2931:	
  5862  1B9D  1C70               	btfss	___wmul@multiplier,0
  5863  1B9E  2BA0               	goto	u4811
  5864  1B9F  2BA1               	goto	u4810
  5865  1BA0                     u4811:	
  5866  1BA0  2BA7               	goto	l318
  5867  1BA1                     u4810:	
  5868  1BA1                     l2933:	
  5869  1BA1  0872               	movf	___wmul@multiplicand,w
  5870  1BA2  07F4               	addwf	___wmul@product,f
  5871  1BA3  1803               	skipnc
  5872  1BA4  0AF5               	incf	___wmul@product+1,f
  5873  1BA5  0873               	movf	___wmul@multiplicand+1,w
  5874  1BA6  07F5               	addwf	___wmul@product+1,f
  5875  1BA7                     l318:	
  5876  1BA7  3001               	movlw	1
  5877  1BA8                     u4825:	
  5878  1BA8  1003               	clrc
  5879  1BA9  0DF2               	rlf	___wmul@multiplicand,f
  5880  1BAA  0DF3               	rlf	___wmul@multiplicand+1,f
  5881  1BAB  3EFF               	addlw	-1
  5882  1BAC  1D03               	skipz
  5883  1BAD  2BA8               	goto	u4825
  5884  1BAE                     l2935:	
  5885  1BAE  3001               	movlw	1
  5886  1BAF                     u4835:	
  5887  1BAF  1003               	clrc
  5888  1BB0  0CF1               	rrf	___wmul@multiplier+1,f
  5889  1BB1  0CF0               	rrf	___wmul@multiplier,f
  5890  1BB2  3EFF               	addlw	-1
  5891  1BB3  1D03               	skipz
  5892  1BB4  2BAF               	goto	u4835
  5893  1BB5                     l2937:	
  5894  1BB5  0870               	movf	___wmul@multiplier,w
  5895  1BB6  0471               	iorwf	___wmul@multiplier+1,w
  5896  1BB7  1D03               	btfss	3,2
  5897  1BB8  2BBA               	goto	u4841
  5898  1BB9  2BBB               	goto	u4840
  5899  1BBA                     u4841:	
  5900  1BBA  2B9D               	goto	l2931
  5901  1BBB                     u4840:	
  5902  1BBB                     l2939:	
  5903  1BBB  0875               	movf	___wmul@product+1,w
  5904  1BBC  00F1               	movwf	?___wmul+1
  5905  1BBD  0874               	movf	___wmul@product,w
  5906  1BBE  00F0               	movwf	?___wmul
  5907  1BBF                     l320:	
  5908  1BBF  0008               	return
  5909  1BC0                     __end_of___wmul:	
  5910                           
  5911                           	psect	text12
  5912  1D29                     __ptext12:	
  5913 ;; *************** function ___llmod *****************
  5914 ;; Defined at:
  5915 ;;		line 5 in file "C:\Program Files (x86)\Microchip\xc8\v2.10\pic\sources\c90\common\llmod.c"
  5916 ;; Parameters:    Size  Location     Type
  5917 ;;  divisor         4    0[COMMON] unsigned long 
  5918 ;;  dividend        4    4[COMMON] unsigned long 
  5919 ;; Auto vars:     Size  Location     Type
  5920 ;;  counter         1    9[COMMON] unsigned char 
  5921 ;; Return value:  Size  Location     Type
  5922 ;;                  4    0[COMMON] unsigned long 
  5923 ;; Registers used:
  5924 ;;		wreg, status,2, status,0
  5925 ;; Tracked objects:
  5926 ;;		On entry : 0/0
  5927 ;;		On exit  : 0/0
  5928 ;;		Unchanged: 0/0
  5929 ;; Data sizes:     COMMON   BANK0   BANK1   BANK3   BANK2
  5930 ;;      Params:         8       0       0       0       0
  5931 ;;      Locals:         1       0       0       0       0
  5932 ;;      Temps:          1       0       0       0       0
  5933 ;;      Totals:        10       0       0       0       0
  5934 ;;Total ram usage:       10 bytes
  5935 ;; Hardware stack levels used:    1
  5936 ;; This function calls:
  5937 ;;		Nothing
  5938 ;; This function is called by:
  5939 ;;		_sprintf
  5940 ;; This function uses a non-reentrant model
  5941 ;;
  5942                           
  5943                           
  5944                           ;psect for function ___llmod
  5945  1D29                     ___llmod:	
  5946  1D29                     l3043:	
  5947                           ;incstack = 0
  5948                           ; Regs used in ___llmod: [wreg+status,2+status,0]
  5949                           
  5950  1D29  0873               	movf	___llmod@divisor+3,w
  5951  1D2A  0472               	iorwf	___llmod@divisor+2,w
  5952  1D2B  0471               	iorwf	___llmod@divisor+1,w
  5953  1D2C  0470               	iorwf	___llmod@divisor,w
  5954  1D2D  1903               	skipnz
  5955  1D2E  2D30               	goto	u5131
  5956  1D2F  2D31               	goto	u5130
  5957  1D30                     u5131:	
  5958  1D30  2D74               	goto	l3059
  5959  1D31                     u5130:	
  5960  1D31                     l3045:	
  5961  1D31  01F9               	clrf	___llmod@counter
  5962  1D32  0AF9               	incf	___llmod@counter,f
  5963  1D33  2D41               	goto	l3049
  5964  1D34                     l3047:	
  5965  1D34  3001               	movlw	1
  5966  1D35  00F8               	movwf	??___llmod
  5967  1D36                     u5145:	
  5968  1D36  1003               	clrc
  5969  1D37  0DF0               	rlf	___llmod@divisor,f
  5970  1D38  0DF1               	rlf	___llmod@divisor+1,f
  5971  1D39  0DF2               	rlf	___llmod@divisor+2,f
  5972  1D3A  0DF3               	rlf	___llmod@divisor+3,f
  5973  1D3B  0BF8               	decfsz	??___llmod,f
  5974  1D3C  2D36               	goto	u5145
  5975  1D3D  3001               	movlw	1
  5976  1D3E  00F8               	movwf	??___llmod
  5977  1D3F  0878               	movf	??___llmod,w
  5978  1D40  07F9               	addwf	___llmod@counter,f
  5979  1D41                     l3049:	
  5980  1D41  1FF3               	btfss	___llmod@divisor+3,7
  5981  1D42  2D44               	goto	u5151
  5982  1D43  2D45               	goto	u5150
  5983  1D44                     u5151:	
  5984  1D44  2D34               	goto	l3047
  5985  1D45                     u5150:	
  5986  1D45                     l3051:	
  5987  1D45  0873               	movf	___llmod@divisor+3,w
  5988  1D46  0277               	subwf	___llmod@dividend+3,w
  5989  1D47  1D03               	skipz
  5990  1D48  2D53               	goto	u5165
  5991  1D49  0872               	movf	___llmod@divisor+2,w
  5992  1D4A  0276               	subwf	___llmod@dividend+2,w
  5993  1D4B  1D03               	skipz
  5994  1D4C  2D53               	goto	u5165
  5995  1D4D  0871               	movf	___llmod@divisor+1,w
  5996  1D4E  0275               	subwf	___llmod@dividend+1,w
  5997  1D4F  1D03               	skipz
  5998  1D50  2D53               	goto	u5165
  5999  1D51  0870               	movf	___llmod@divisor,w
  6000  1D52  0274               	subwf	___llmod@dividend,w
  6001  1D53                     u5165:	
  6002  1D53  1C03               	skipc
  6003  1D54  2D56               	goto	u5161
  6004  1D55  2D57               	goto	u5160
  6005  1D56                     u5161:	
  6006  1D56  2D65               	goto	l3055
  6007  1D57                     u5160:	
  6008  1D57                     l3053:	
  6009  1D57  0870               	movf	___llmod@divisor,w
  6010  1D58  02F4               	subwf	___llmod@dividend,f
  6011  1D59  0871               	movf	___llmod@divisor+1,w
  6012  1D5A  1C03               	skipc
  6013  1D5B  0F71               	incfsz	___llmod@divisor+1,w
  6014  1D5C  02F5               	subwf	___llmod@dividend+1,f
  6015  1D5D  0872               	movf	___llmod@divisor+2,w
  6016  1D5E  1C03               	skipc
  6017  1D5F  0F72               	incfsz	___llmod@divisor+2,w
  6018  1D60  02F6               	subwf	___llmod@dividend+2,f
  6019  1D61  0873               	movf	___llmod@divisor+3,w
  6020  1D62  1C03               	skipc
  6021  1D63  0F73               	incfsz	___llmod@divisor+3,w
  6022  1D64  02F7               	subwf	___llmod@dividend+3,f
  6023  1D65                     l3055:	
  6024  1D65  3001               	movlw	1
  6025  1D66                     u5175:	
  6026  1D66  1003               	clrc
  6027  1D67  0CF3               	rrf	___llmod@divisor+3,f
  6028  1D68  0CF2               	rrf	___llmod@divisor+2,f
  6029  1D69  0CF1               	rrf	___llmod@divisor+1,f
  6030  1D6A  0CF0               	rrf	___llmod@divisor,f
  6031  1D6B  3EFF               	addlw	-1
  6032  1D6C  1D03               	skipz
  6033  1D6D  2D66               	goto	u5175
  6034  1D6E                     l3057:	
  6035  1D6E  3001               	movlw	1
  6036  1D6F  02F9               	subwf	___llmod@counter,f
  6037  1D70  1D03               	btfss	3,2
  6038  1D71  2D73               	goto	u5181
  6039  1D72  2D74               	goto	u5180
  6040  1D73                     u5181:	
  6041  1D73  2D45               	goto	l3051
  6042  1D74                     u5180:	
  6043  1D74                     l3059:	
  6044  1D74  0877               	movf	___llmod@dividend+3,w
  6045  1D75  00F3               	movwf	?___llmod+3
  6046  1D76  0876               	movf	___llmod@dividend+2,w
  6047  1D77  00F2               	movwf	?___llmod+2
  6048  1D78  0875               	movf	___llmod@dividend+1,w
  6049  1D79  00F1               	movwf	?___llmod+1
  6050  1D7A  0874               	movf	___llmod@dividend,w
  6051  1D7B  00F0               	movwf	?___llmod
  6052  1D7C                     l574:	
  6053  1D7C  0008               	return
  6054  1D7D                     __end_of___llmod:	
  6055                           
  6056                           	psect	text13
  6057  1DD6                     __ptext13:	
  6058 ;; *************** function ___lldiv *****************
  6059 ;; Defined at:
  6060 ;;		line 5 in file "C:\Program Files (x86)\Microchip\xc8\v2.10\pic\sources\c90\common\__lldiv.c"
  6061 ;; Parameters:    Size  Location     Type
  6062 ;;  divisor         4    0[COMMON] unsigned long 
  6063 ;;  dividend        4    4[COMMON] unsigned long 
  6064 ;; Auto vars:     Size  Location     Type
  6065 ;;  quotient        4    9[COMMON] unsigned long 
  6066 ;;  counter         1   13[COMMON] unsigned char 
  6067 ;; Return value:  Size  Location     Type
  6068 ;;                  4    0[COMMON] unsigned long 
  6069 ;; Registers used:
  6070 ;;		wreg, status,2, status,0
  6071 ;; Tracked objects:
  6072 ;;		On entry : 0/0
  6073 ;;		On exit  : 0/0
  6074 ;;		Unchanged: 0/0
  6075 ;; Data sizes:     COMMON   BANK0   BANK1   BANK3   BANK2
  6076 ;;      Params:         8       0       0       0       0
  6077 ;;      Locals:         5       0       0       0       0
  6078 ;;      Temps:          1       0       0       0       0
  6079 ;;      Totals:        14       0       0       0       0
  6080 ;;Total ram usage:       14 bytes
  6081 ;; Hardware stack levels used:    1
  6082 ;; This function calls:
  6083 ;;		Nothing
  6084 ;; This function is called by:
  6085 ;;		_sprintf
  6086 ;; This function uses a non-reentrant model
  6087 ;;
  6088                           
  6089                           
  6090                           ;psect for function ___lldiv
  6091  1DD6                     ___lldiv:	
  6092  1DD6                     l2943:	
  6093                           ;incstack = 0
  6094                           ; Regs used in ___lldiv: [wreg+status,2+status,0]
  6095                           
  6096  1DD6  3000               	movlw	0
  6097  1DD7  00FC               	movwf	___lldiv@quotient+3
  6098  1DD8  3000               	movlw	0
  6099  1DD9  00FB               	movwf	___lldiv@quotient+2
  6100  1DDA  3000               	movlw	0
  6101  1DDB  00FA               	movwf	___lldiv@quotient+1
  6102  1DDC  3000               	movlw	0
  6103  1DDD  00F9               	movwf	___lldiv@quotient
  6104  1DDE  0873               	movf	___lldiv@divisor+3,w
  6105  1DDF  0472               	iorwf	___lldiv@divisor+2,w
  6106  1DE0  0471               	iorwf	___lldiv@divisor+1,w
  6107  1DE1  0470               	iorwf	___lldiv@divisor,w
  6108  1DE2  1903               	skipnz
  6109  1DE3  2DE5               	goto	u4851
  6110  1DE4  2DE6               	goto	u4850
  6111  1DE5                     u4851:	
  6112  1DE5  2E33               	goto	l2963
  6113  1DE6                     u4850:	
  6114  1DE6                     l2945:	
  6115  1DE6  01FD               	clrf	___lldiv@counter
  6116  1DE7  0AFD               	incf	___lldiv@counter,f
  6117  1DE8  2DF6               	goto	l2949
  6118  1DE9                     l2947:	
  6119  1DE9  3001               	movlw	1
  6120  1DEA  00F8               	movwf	??___lldiv
  6121  1DEB                     u4865:	
  6122  1DEB  1003               	clrc
  6123  1DEC  0DF0               	rlf	___lldiv@divisor,f
  6124  1DED  0DF1               	rlf	___lldiv@divisor+1,f
  6125  1DEE  0DF2               	rlf	___lldiv@divisor+2,f
  6126  1DEF  0DF3               	rlf	___lldiv@divisor+3,f
  6127  1DF0  0BF8               	decfsz	??___lldiv,f
  6128  1DF1  2DEB               	goto	u4865
  6129  1DF2  3001               	movlw	1
  6130  1DF3  00F8               	movwf	??___lldiv
  6131  1DF4  0878               	movf	??___lldiv,w
  6132  1DF5  07FD               	addwf	___lldiv@counter,f
  6133  1DF6                     l2949:	
  6134  1DF6  1FF3               	btfss	___lldiv@divisor+3,7
  6135  1DF7  2DF9               	goto	u4871
  6136  1DF8  2DFA               	goto	u4870
  6137  1DF9                     u4871:	
  6138  1DF9  2DE9               	goto	l2947
  6139  1DFA                     u4870:	
  6140  1DFA                     l2951:	
  6141  1DFA  3001               	movlw	1
  6142  1DFB  00F8               	movwf	??___lldiv
  6143  1DFC                     u4885:	
  6144  1DFC  1003               	clrc
  6145  1DFD  0DF9               	rlf	___lldiv@quotient,f
  6146  1DFE  0DFA               	rlf	___lldiv@quotient+1,f
  6147  1DFF  0DFB               	rlf	___lldiv@quotient+2,f
  6148  1E00  0DFC               	rlf	___lldiv@quotient+3,f
  6149  1E01  0BF8               	decfsz	??___lldiv,f
  6150  1E02  2DFC               	goto	u4885
  6151  1E03                     l2953:	
  6152  1E03  0873               	movf	___lldiv@divisor+3,w
  6153  1E04  0277               	subwf	___lldiv@dividend+3,w
  6154  1E05  1D03               	skipz
  6155  1E06  2E11               	goto	u4895
  6156  1E07  0872               	movf	___lldiv@divisor+2,w
  6157  1E08  0276               	subwf	___lldiv@dividend+2,w
  6158  1E09  1D03               	skipz
  6159  1E0A  2E11               	goto	u4895
  6160  1E0B  0871               	movf	___lldiv@divisor+1,w
  6161  1E0C  0275               	subwf	___lldiv@dividend+1,w
  6162  1E0D  1D03               	skipz
  6163  1E0E  2E11               	goto	u4895
  6164  1E0F  0870               	movf	___lldiv@divisor,w
  6165  1E10  0274               	subwf	___lldiv@dividend,w
  6166  1E11                     u4895:	
  6167  1E11  1C03               	skipc
  6168  1E12  2E14               	goto	u4891
  6169  1E13  2E15               	goto	u4890
  6170  1E14                     u4891:	
  6171  1E14  2E24               	goto	l2959
  6172  1E15                     u4890:	
  6173  1E15                     l2955:	
  6174  1E15  0870               	movf	___lldiv@divisor,w
  6175  1E16  02F4               	subwf	___lldiv@dividend,f
  6176  1E17  0871               	movf	___lldiv@divisor+1,w
  6177  1E18  1C03               	skipc
  6178  1E19  0F71               	incfsz	___lldiv@divisor+1,w
  6179  1E1A  02F5               	subwf	___lldiv@dividend+1,f
  6180  1E1B  0872               	movf	___lldiv@divisor+2,w
  6181  1E1C  1C03               	skipc
  6182  1E1D  0F72               	incfsz	___lldiv@divisor+2,w
  6183  1E1E  02F6               	subwf	___lldiv@dividend+2,f
  6184  1E1F  0873               	movf	___lldiv@divisor+3,w
  6185  1E20  1C03               	skipc
  6186  1E21  0F73               	incfsz	___lldiv@divisor+3,w
  6187  1E22  02F7               	subwf	___lldiv@dividend+3,f
  6188  1E23                     l2957:	
  6189  1E23  1479               	bsf	___lldiv@quotient,0
  6190  1E24                     l2959:	
  6191  1E24  3001               	movlw	1
  6192  1E25                     u4905:	
  6193  1E25  1003               	clrc
  6194  1E26  0CF3               	rrf	___lldiv@divisor+3,f
  6195  1E27  0CF2               	rrf	___lldiv@divisor+2,f
  6196  1E28  0CF1               	rrf	___lldiv@divisor+1,f
  6197  1E29  0CF0               	rrf	___lldiv@divisor,f
  6198  1E2A  3EFF               	addlw	-1
  6199  1E2B  1D03               	skipz
  6200  1E2C  2E25               	goto	u4905
  6201  1E2D                     l2961:	
  6202  1E2D  3001               	movlw	1
  6203  1E2E  02FD               	subwf	___lldiv@counter,f
  6204  1E2F  1D03               	btfss	3,2
  6205  1E30  2E32               	goto	u4911
  6206  1E31  2E33               	goto	u4910
  6207  1E32                     u4911:	
  6208  1E32  2DFA               	goto	l2951
  6209  1E33                     u4910:	
  6210  1E33                     l2963:	
  6211  1E33  087C               	movf	___lldiv@quotient+3,w
  6212  1E34  00F3               	movwf	?___lldiv+3
  6213  1E35  087B               	movf	___lldiv@quotient+2,w
  6214  1E36  00F2               	movwf	?___lldiv+2
  6215  1E37  087A               	movf	___lldiv@quotient+1,w
  6216  1E38  00F1               	movwf	?___lldiv+1
  6217  1E39  0879               	movf	___lldiv@quotient,w
  6218  1E3A  00F0               	movwf	?___lldiv
  6219  1E3B                     l354:	
  6220  1E3B  0008               	return
  6221  1E3C                     __end_of___lldiv:	
  6222                           
  6223                           	psect	text14
  6224  000F                     __ptext14:	
  6225 ;; *************** function ___fltol *****************
  6226 ;; Defined at:
  6227 ;;		line 43 in file "C:\Program Files (x86)\Microchip\xc8\v2.10\pic\sources\c90\common\fltol.c"
  6228 ;; Parameters:    Size  Location     Type
  6229 ;;  f1              4   58[BANK0 ] unsigned long 
  6230 ;; Auto vars:     Size  Location     Type
  6231 ;;  exp1            1   68[BANK0 ] unsigned char 
  6232 ;;  sign1           1   67[BANK0 ] unsigned char 
  6233 ;; Return value:  Size  Location     Type
  6234 ;;                  4   58[BANK0 ] long 
  6235 ;; Registers used:
  6236 ;;		wreg, status,2, status,0
  6237 ;; Tracked objects:
  6238 ;;		On entry : 0/0
  6239 ;;		On exit  : 0/0
  6240 ;;		Unchanged: 0/0
  6241 ;; Data sizes:     COMMON   BANK0   BANK1   BANK3   BANK2
  6242 ;;      Params:         0       4       0       0       0
  6243 ;;      Locals:         0       2       0       0       0
  6244 ;;      Temps:          0       5       0       0       0
  6245 ;;      Totals:         0      11       0       0       0
  6246 ;;Total ram usage:       11 bytes
  6247 ;; Hardware stack levels used:    1
  6248 ;; This function calls:
  6249 ;;		Nothing
  6250 ;; This function is called by:
  6251 ;;		_sprintf
  6252 ;; This function uses a non-reentrant model
  6253 ;;
  6254                           
  6255                           
  6256                           ;psect for function ___fltol
  6257  000F                     ___fltol:	
  6258  000F                     l3007:	
  6259                           ;incstack = 0
  6260                           ; Regs used in ___fltol: [wreg+status,2+status,0]
  6261                           
  6262  000F  1003               	clrc
  6263  0010  1283               	bcf	3,5	;RP0=0, select bank0
  6264  0011  1303               	bcf	3,6	;RP1=0, select bank0
  6265  0012  0D5C               	rlf	___fltol@f1+2,w
  6266  0013  0D5D               	rlf	___fltol@f1+3,w
  6267  0014  00DE               	movwf	??___fltol
  6268  0015  085E               	movf	??___fltol,w
  6269  0016  00E4               	movwf	___fltol@exp1
  6270  0017  0864               	movf	___fltol@exp1,w
  6271  0018  1D03               	btfss	3,2
  6272  0019  281B               	goto	u5031
  6273  001A  281C               	goto	u5030
  6274  001B                     u5031:	
  6275  001B  2825               	goto	l3013
  6276  001C                     u5030:	
  6277  001C                     l3009:	
  6278  001C  3000               	movlw	0
  6279  001D  00DD               	movwf	?___fltol+3
  6280  001E  3000               	movlw	0
  6281  001F  00DC               	movwf	?___fltol+2
  6282  0020  3000               	movlw	0
  6283  0021  00DB               	movwf	?___fltol+1
  6284  0022  3000               	movlw	0
  6285  0023  00DA               	movwf	?___fltol
  6286  0024  288A               	goto	l521
  6287  0025                     l3013:	
  6288  0025  085A               	movf	___fltol@f1,w
  6289  0026  00DE               	movwf	??___fltol
  6290  0027  085B               	movf	___fltol@f1+1,w
  6291  0028  00DF               	movwf	??___fltol+1
  6292  0029  085C               	movf	___fltol@f1+2,w
  6293  002A  00E0               	movwf	??___fltol+2
  6294  002B  085D               	movf	___fltol@f1+3,w
  6295  002C  00E1               	movwf	??___fltol+3
  6296  002D  301F               	movlw	31
  6297  002E                     u5045:	
  6298  002E  1003               	clrc
  6299  002F  0CE1               	rrf	??___fltol+3,f
  6300  0030  0CE0               	rrf	??___fltol+2,f
  6301  0031  0CDF               	rrf	??___fltol+1,f
  6302  0032  0CDE               	rrf	??___fltol,f
  6303  0033                     u5040:	
  6304  0033  3EFF               	addlw	-1
  6305  0034  1D03               	skipz
  6306  0035  282E               	goto	u5045
  6307  0036  085E               	movf	??___fltol,w
  6308  0037  00E2               	movwf	??___fltol+4
  6309  0038  0862               	movf	??___fltol+4,w
  6310  0039  00E3               	movwf	___fltol@sign1
  6311  003A                     l3015:	
  6312  003A  17DC               	bsf	___fltol@f1+2,7
  6313  003B                     l3017:	
  6314  003B  30FF               	movlw	255
  6315  003C  05DA               	andwf	___fltol@f1,f
  6316  003D  30FF               	movlw	255
  6317  003E  05DB               	andwf	___fltol@f1+1,f
  6318  003F  30FF               	movlw	255
  6319  0040  05DC               	andwf	___fltol@f1+2,f
  6320  0041  3000               	movlw	0
  6321  0042  05DD               	andwf	___fltol@f1+3,f
  6322  0043                     l3019:	
  6323  0043  3096               	movlw	150
  6324  0044  02E4               	subwf	___fltol@exp1,f
  6325  0045                     l3021:	
  6326  0045  1FE4               	btfss	___fltol@exp1,7
  6327  0046  2848               	goto	u5051
  6328  0047  2849               	goto	u5050
  6329  0048                     u5051:	
  6330  0048  2863               	goto	l3031
  6331  0049                     u5050:	
  6332  0049                     l3023:	
  6333  0049  0864               	movf	___fltol@exp1,w
  6334  004A  3A80               	xorlw	128
  6335  004B  3E97               	addlw	151
  6336  004C  1803               	skipnc
  6337  004D  284F               	goto	u5061
  6338  004E  2850               	goto	u5060
  6339  004F                     u5061:	
  6340  004F  2851               	goto	l3029
  6341  0050                     u5060:	
  6342  0050  281C               	goto	l3009
  6343  0051                     l3029:	
  6344  0051  3001               	movlw	1
  6345  0052                     u5075:	
  6346  0052  1003               	clrc
  6347  0053  0CDD               	rrf	___fltol@f1+3,f
  6348  0054  0CDC               	rrf	___fltol@f1+2,f
  6349  0055  0CDB               	rrf	___fltol@f1+1,f
  6350  0056  0CDA               	rrf	___fltol@f1,f
  6351  0057  3EFF               	addlw	-1
  6352  0058  1D03               	skipz
  6353  0059  2852               	goto	u5075
  6354  005A  3001               	movlw	1
  6355  005B  00DE               	movwf	??___fltol
  6356  005C  085E               	movf	??___fltol,w
  6357  005D  07E4               	addwf	___fltol@exp1,f
  6358  005E  1D03               	btfss	3,2
  6359  005F  2861               	goto	u5081
  6360  0060  2862               	goto	u5080
  6361  0061                     u5081:	
  6362  0061  2851               	goto	l3029
  6363  0062                     u5080:	
  6364  0062  287A               	goto	l3039
  6365  0063                     l3031:	
  6366  0063  3020               	movlw	32
  6367  0064  0264               	subwf	___fltol@exp1,w
  6368  0065  1C03               	skipc
  6369  0066  2868               	goto	u5091
  6370  0067  2869               	goto	u5090
  6371  0068                     u5091:	
  6372  0068  2875               	goto	l528
  6373  0069                     u5090:	
  6374  0069  281C               	goto	l3009
  6375  006A                     l3037:	
  6376  006A  3001               	movlw	1
  6377  006B  00DE               	movwf	??___fltol
  6378  006C                     u5105:	
  6379  006C  1003               	clrc
  6380  006D  0DDA               	rlf	___fltol@f1,f
  6381  006E  0DDB               	rlf	___fltol@f1+1,f
  6382  006F  0DDC               	rlf	___fltol@f1+2,f
  6383  0070  0DDD               	rlf	___fltol@f1+3,f
  6384  0071  0BDE               	decfsz	??___fltol,f
  6385  0072  286C               	goto	u5105
  6386  0073  3001               	movlw	1
  6387  0074  02E4               	subwf	___fltol@exp1,f
  6388  0075                     l528:	
  6389  0075  0864               	movf	___fltol@exp1,w
  6390  0076  1D03               	btfss	3,2
  6391  0077  2879               	goto	u5111
  6392  0078  287A               	goto	u5110
  6393  0079                     u5111:	
  6394  0079  286A               	goto	l3037
  6395  007A                     u5110:	
  6396  007A                     l3039:	
  6397  007A  0863               	movf	___fltol@sign1,w
  6398  007B  1903               	btfsc	3,2
  6399  007C  287E               	goto	u5121
  6400  007D  287F               	goto	u5120
  6401  007E                     u5121:	
  6402  007E  288A               	goto	l531
  6403  007F                     u5120:	
  6404  007F                     l3041:	
  6405  007F  09DA               	comf	___fltol@f1,f
  6406  0080  09DB               	comf	___fltol@f1+1,f
  6407  0081  09DC               	comf	___fltol@f1+2,f
  6408  0082  09DD               	comf	___fltol@f1+3,f
  6409  0083  0ADA               	incf	___fltol@f1,f
  6410  0084  1903               	skipnz
  6411  0085  0ADB               	incf	___fltol@f1+1,f
  6412  0086  1903               	skipnz
  6413  0087  0ADC               	incf	___fltol@f1+2,f
  6414  0088  1903               	skipnz
  6415  0089  0ADD               	incf	___fltol@f1+3,f
  6416  008A                     l531:	
  6417  008A                     l521:	
  6418  008A  0008               	return
  6419  008B                     __end_of___fltol:	
  6420                           
  6421                           	psect	text15
  6422  1CD9                     __ptext15:	
  6423 ;; *************** function ___flsub *****************
  6424 ;; Defined at:
  6425 ;;		line 242 in file "C:\Program Files (x86)\Microchip\xc8\v2.10\pic\sources\c90\common\sprcadd.c"
  6426 ;; Parameters:    Size  Location     Type
  6427 ;;  a               4    0[BANK1 ] long 
  6428 ;;  b               4    4[BANK1 ] long 
  6429 ;; Auto vars:     Size  Location     Type
  6430 ;;		None
  6431 ;; Return value:  Size  Location     Type
  6432 ;;                  4    0[BANK1 ] long 
  6433 ;; Registers used:
  6434 ;;		wreg, status,2, status,0, btemp+1, pclath, cstack
  6435 ;; Tracked objects:
  6436 ;;		On entry : 0/0
  6437 ;;		On exit  : 0/0
  6438 ;;		Unchanged: 0/0
  6439 ;; Data sizes:     COMMON   BANK0   BANK1   BANK3   BANK2
  6440 ;;      Params:         0       0       8       0       0
  6441 ;;      Locals:         0       0       0       0       0
  6442 ;;      Temps:          0       0       0       0       0
  6443 ;;      Totals:         0       0       8       0       0
  6444 ;;Total ram usage:        8 bytes
  6445 ;; Hardware stack levels used:    1
  6446 ;; Hardware stack levels required when called:    1
  6447 ;; This function calls:
  6448 ;;		___fladd
  6449 ;; This function is called by:
  6450 ;;		_sprintf
  6451 ;; This function uses a non-reentrant model
  6452 ;;
  6453                           
  6454                           
  6455                           ;psect for function ___flsub
  6456  1CD9                     ___flsub:	
  6457  1CD9                     l3063:	
  6458                           ;incstack = 0
  6459                           ; Regs used in ___flsub: [wreg+status,2+status,0+btemp+1+pclath+cstack]
  6460                           
  6461  1CD9  3080               	movlw	128
  6462  1CDA  1683               	bsf	3,5	;RP0=1, select bank1
  6463  1CDB  1303               	bcf	3,6	;RP1=0, select bank1
  6464  1CDC  06A3               	xorwf	(___flsub@a+3)^(0+128),f
  6465  1CDD                     l3065:	
  6466  1CDD  0827               	movf	(___flsub@b+3)^(0+128),w
  6467  1CDE  1283               	bcf	3,5	;RP0=0, select bank0
  6468  1CDF  1303               	bcf	3,6	;RP1=0, select bank0
  6469  1CE0  00DE               	movwf	___fladd@b+3
  6470  1CE1  1683               	bsf	3,5	;RP0=1, select bank1
  6471  1CE2  1303               	bcf	3,6	;RP1=0, select bank1
  6472  1CE3  0826               	movf	(___flsub@b+2)^(0+128),w
  6473  1CE4  1283               	bcf	3,5	;RP0=0, select bank0
  6474  1CE5  1303               	bcf	3,6	;RP1=0, select bank0
  6475  1CE6  00DD               	movwf	___fladd@b+2
  6476  1CE7  1683               	bsf	3,5	;RP0=1, select bank1
  6477  1CE8  1303               	bcf	3,6	;RP1=0, select bank1
  6478  1CE9  0825               	movf	(___flsub@b+1)^(0+128),w
  6479  1CEA  1283               	bcf	3,5	;RP0=0, select bank0
  6480  1CEB  1303               	bcf	3,6	;RP1=0, select bank0
  6481  1CEC  00DC               	movwf	___fladd@b+1
  6482  1CED  1683               	bsf	3,5	;RP0=1, select bank1
  6483  1CEE  1303               	bcf	3,6	;RP1=0, select bank1
  6484  1CEF  0824               	movf	___flsub@b^(0+128),w
  6485  1CF0  1283               	bcf	3,5	;RP0=0, select bank0
  6486  1CF1  1303               	bcf	3,6	;RP1=0, select bank0
  6487  1CF2  00DB               	movwf	___fladd@b
  6488  1CF3  1683               	bsf	3,5	;RP0=1, select bank1
  6489  1CF4  1303               	bcf	3,6	;RP1=0, select bank1
  6490  1CF5  0823               	movf	(___flsub@a+3)^(0+128),w
  6491  1CF6  1283               	bcf	3,5	;RP0=0, select bank0
  6492  1CF7  1303               	bcf	3,6	;RP1=0, select bank0
  6493  1CF8  00E2               	movwf	___fladd@a+3
  6494  1CF9  1683               	bsf	3,5	;RP0=1, select bank1
  6495  1CFA  1303               	bcf	3,6	;RP1=0, select bank1
  6496  1CFB  0822               	movf	(___flsub@a+2)^(0+128),w
  6497  1CFC  1283               	bcf	3,5	;RP0=0, select bank0
  6498  1CFD  1303               	bcf	3,6	;RP1=0, select bank0
  6499  1CFE  00E1               	movwf	___fladd@a+2
  6500  1CFF  1683               	bsf	3,5	;RP0=1, select bank1
  6501  1D00  1303               	bcf	3,6	;RP1=0, select bank1
  6502  1D01  0821               	movf	(___flsub@a+1)^(0+128),w
  6503  1D02  1283               	bcf	3,5	;RP0=0, select bank0
  6504  1D03  1303               	bcf	3,6	;RP1=0, select bank0
  6505  1D04  00E0               	movwf	___fladd@a+1
  6506  1D05  1683               	bsf	3,5	;RP0=1, select bank1
  6507  1D06  1303               	bcf	3,6	;RP1=0, select bank1
  6508  1D07  0820               	movf	___flsub@a^(0+128),w
  6509  1D08  1283               	bcf	3,5	;RP0=0, select bank0
  6510  1D09  1303               	bcf	3,6	;RP1=0, select bank0
  6511  1D0A  00DF               	movwf	___fladd@a
  6512  1D0B  160A  118A  2578  160A  158A  	fcall	___fladd
  6513  1D10  1283               	bcf	3,5	;RP0=0, select bank0
  6514  1D11  1303               	bcf	3,6	;RP1=0, select bank0
  6515  1D12  085E               	movf	?___fladd+3,w
  6516  1D13  1683               	bsf	3,5	;RP0=1, select bank1
  6517  1D14  1303               	bcf	3,6	;RP1=0, select bank1
  6518  1D15  00A3               	movwf	(?___flsub+3)^(0+128)
  6519  1D16  1283               	bcf	3,5	;RP0=0, select bank0
  6520  1D17  1303               	bcf	3,6	;RP1=0, select bank0
  6521  1D18  085D               	movf	?___fladd+2,w
  6522  1D19  1683               	bsf	3,5	;RP0=1, select bank1
  6523  1D1A  1303               	bcf	3,6	;RP1=0, select bank1
  6524  1D1B  00A2               	movwf	(?___flsub+2)^(0+128)
  6525  1D1C  1283               	bcf	3,5	;RP0=0, select bank0
  6526  1D1D  1303               	bcf	3,6	;RP1=0, select bank0
  6527  1D1E  085C               	movf	?___fladd+1,w
  6528  1D1F  1683               	bsf	3,5	;RP0=1, select bank1
  6529  1D20  1303               	bcf	3,6	;RP1=0, select bank1
  6530  1D21  00A1               	movwf	(?___flsub+1)^(0+128)
  6531  1D22  1283               	bcf	3,5	;RP0=0, select bank0
  6532  1D23  1303               	bcf	3,6	;RP1=0, select bank0
  6533  1D24  085B               	movf	?___fladd,w
  6534  1D25  1683               	bsf	3,5	;RP0=1, select bank1
  6535  1D26  1303               	bcf	3,6	;RP1=0, select bank1
  6536  1D27  00A0               	movwf	?___flsub^(0+128)
  6537  1D28                     l691:	
  6538  1D28  0008               	return
  6539  1D29                     __end_of___flsub:	
  6540                           
  6541                           	psect	text16
  6542  1578                     __ptext16:	
  6543 ;; *************** function ___fladd *****************
  6544 ;; Defined at:
  6545 ;;		line 10 in file "C:\Program Files (x86)\Microchip\xc8\v2.10\pic\sources\c90\common\sprcadd.c"
  6546 ;; Parameters:    Size  Location     Type
  6547 ;;  b               4   59[BANK0 ] long 
  6548 ;;  a               4   63[BANK0 ] long 
  6549 ;; Auto vars:     Size  Location     Type
  6550 ;;  grs             1   78[BANK0 ] unsigned char 
  6551 ;;  bexp            1   77[BANK0 ] unsigned char 
  6552 ;;  aexp            1   76[BANK0 ] unsigned char 
  6553 ;;  signs           1   75[BANK0 ] unsigned char 
  6554 ;; Return value:  Size  Location     Type
  6555 ;;                  4   59[BANK0 ] unsigned char 
  6556 ;; Registers used:
  6557 ;;		wreg, status,2, status,0, btemp+1
  6558 ;; Tracked objects:
  6559 ;;		On entry : 0/0
  6560 ;;		On exit  : 0/0
  6561 ;;		Unchanged: 0/0
  6562 ;; Data sizes:     COMMON   BANK0   BANK1   BANK3   BANK2
  6563 ;;      Params:         0       8       0       0       0
  6564 ;;      Locals:         0       4       0       0       0
  6565 ;;      Temps:          0       8       0       0       0
  6566 ;;      Totals:         0      20       0       0       0
  6567 ;;Total ram usage:       20 bytes
  6568 ;; Hardware stack levels used:    1
  6569 ;; This function calls:
  6570 ;;		Nothing
  6571 ;; This function is called by:
  6572 ;;		_sprintf
  6573 ;;		___flsub
  6574 ;; This function uses a non-reentrant model
  6575 ;;
  6576                           
  6577                           
  6578                           ;psect for function ___fladd
  6579  1578                     ___fladd:	
  6580  1578                     l2417:	
  6581                           ;incstack = 0
  6582                           ; Regs used in ___fladd: [wreg+status,2+status,0+btemp+1]
  6583                           
  6584  1578  1283               	bcf	3,5	;RP0=0, select bank0
  6585  1579  1303               	bcf	3,6	;RP1=0, select bank0
  6586  157A  085E               	movf	___fladd@b+3,w
  6587  157B  3980               	andlw	128
  6588  157C  00E3               	movwf	??___fladd
  6589  157D  0863               	movf	??___fladd,w
  6590  157E  00EB               	movwf	___fladd@signs
  6591  157F                     l2419:	
  6592  157F  085E               	movf	___fladd@b+3,w
  6593  1580  00E3               	movwf	??___fladd
  6594  1581  0763               	addwf	??___fladd,w
  6595  1582  00E4               	movwf	??___fladd+1
  6596  1583  0864               	movf	??___fladd+1,w
  6597  1584  00ED               	movwf	___fladd@bexp
  6598  1585                     l2421:	
  6599  1585  1FDD               	btfss	___fladd@b+2,7
  6600  1586  2D88               	goto	u3431
  6601  1587  2D89               	goto	u3430
  6602  1588                     u3431:	
  6603  1588  2D8A               	goto	l2425
  6604  1589                     u3430:	
  6605  1589                     l2423:	
  6606  1589  146D               	bsf	___fladd@bexp,0
  6607  158A                     l2425:	
  6608  158A  086D               	movf	___fladd@bexp,w
  6609  158B  1903               	btfsc	3,2
  6610  158C  2D8E               	goto	u3441
  6611  158D  2D8F               	goto	u3440
  6612  158E                     u3441:	
  6613  158E  2D9F               	goto	l2435
  6614  158F                     u3440:	
  6615  158F                     l2427:	
  6616  158F  0A6D               	incf	___fladd@bexp,w
  6617  1590  1D03               	btfss	3,2
  6618  1591  2D93               	goto	u3451
  6619  1592  2D94               	goto	u3450
  6620  1593                     u3451:	
  6621  1593  2D9C               	goto	l2431
  6622  1594                     u3450:	
  6623  1594                     l2429:	
  6624  1594  3000               	movlw	0
  6625  1595  00DE               	movwf	___fladd@b+3
  6626  1596  3000               	movlw	0
  6627  1597  00DD               	movwf	___fladd@b+2
  6628  1598  3000               	movlw	0
  6629  1599  00DC               	movwf	___fladd@b+1
  6630  159A  3000               	movlw	0
  6631  159B  00DB               	movwf	___fladd@b
  6632  159C                     l2431:	
  6633  159C  17DD               	bsf	___fladd@b+2,7
  6634  159D                     l2433:	
  6635  159D  01DE               	clrf	___fladd@b+3
  6636  159E  2DA7               	goto	l2437
  6637  159F                     l2435:	
  6638  159F  3000               	movlw	0
  6639  15A0  00DE               	movwf	___fladd@b+3
  6640  15A1  3000               	movlw	0
  6641  15A2  00DD               	movwf	___fladd@b+2
  6642  15A3  3000               	movlw	0
  6643  15A4  00DC               	movwf	___fladd@b+1
  6644  15A5  3000               	movlw	0
  6645  15A6  00DB               	movwf	___fladd@b
  6646  15A7                     l2437:	
  6647  15A7  0862               	movf	___fladd@a+3,w
  6648  15A8  3980               	andlw	128
  6649  15A9  00E3               	movwf	??___fladd
  6650  15AA  0863               	movf	??___fladd,w
  6651  15AB  00EC               	movwf	___fladd@aexp
  6652  15AC                     l2439:	
  6653  15AC  086C               	movf	___fladd@aexp,w
  6654  15AD  066B               	xorwf	___fladd@signs,w
  6655  15AE  1903               	skipnz
  6656  15AF  2DB1               	goto	u3461
  6657  15B0  2DB2               	goto	u3460
  6658  15B1                     u3461:	
  6659  15B1  2DB3               	goto	l2443
  6660  15B2                     u3460:	
  6661  15B2                     l2441:	
  6662  15B2  176B               	bsf	___fladd@signs,6
  6663  15B3                     l2443:	
  6664  15B3  0862               	movf	___fladd@a+3,w
  6665  15B4  00E3               	movwf	??___fladd
  6666  15B5  0763               	addwf	??___fladd,w
  6667  15B6  00E4               	movwf	??___fladd+1
  6668  15B7  0864               	movf	??___fladd+1,w
  6669  15B8  00EC               	movwf	___fladd@aexp
  6670  15B9                     l2445:	
  6671  15B9  1FE1               	btfss	___fladd@a+2,7
  6672  15BA  2DBC               	goto	u3471
  6673  15BB  2DBD               	goto	u3470
  6674  15BC                     u3471:	
  6675  15BC  2DBE               	goto	l2449
  6676  15BD                     u3470:	
  6677  15BD                     l2447:	
  6678  15BD  146C               	bsf	___fladd@aexp,0
  6679  15BE                     l2449:	
  6680  15BE  086C               	movf	___fladd@aexp,w
  6681  15BF  1903               	btfsc	3,2
  6682  15C0  2DC2               	goto	u3481
  6683  15C1  2DC3               	goto	u3480
  6684  15C2                     u3481:	
  6685  15C2  2DD3               	goto	l2459
  6686  15C3                     u3480:	
  6687  15C3                     l2451:	
  6688  15C3  0A6C               	incf	___fladd@aexp,w
  6689  15C4  1D03               	btfss	3,2
  6690  15C5  2DC7               	goto	u3491
  6691  15C6  2DC8               	goto	u3490
  6692  15C7                     u3491:	
  6693  15C7  2DD0               	goto	l2455
  6694  15C8                     u3490:	
  6695  15C8                     l2453:	
  6696  15C8  3000               	movlw	0
  6697  15C9  00E2               	movwf	___fladd@a+3
  6698  15CA  3000               	movlw	0
  6699  15CB  00E1               	movwf	___fladd@a+2
  6700  15CC  3000               	movlw	0
  6701  15CD  00E0               	movwf	___fladd@a+1
  6702  15CE  3000               	movlw	0
  6703  15CF  00DF               	movwf	___fladd@a
  6704  15D0                     l2455:	
  6705  15D0  17E1               	bsf	___fladd@a+2,7
  6706  15D1                     l2457:	
  6707  15D1  01E2               	clrf	___fladd@a+3
  6708  15D2  2DDB               	goto	l645
  6709  15D3                     l2459:	
  6710  15D3  3000               	movlw	0
  6711  15D4  00E2               	movwf	___fladd@a+3
  6712  15D5  3000               	movlw	0
  6713  15D6  00E1               	movwf	___fladd@a+2
  6714  15D7  3000               	movlw	0
  6715  15D8  00E0               	movwf	___fladd@a+1
  6716  15D9  3000               	movlw	0
  6717  15DA  00DF               	movwf	___fladd@a
  6718  15DB                     l645:	
  6719  15DB  086D               	movf	___fladd@bexp,w
  6720  15DC  026C               	subwf	___fladd@aexp,w
  6721  15DD  1803               	skipnc
  6722  15DE  2DE0               	goto	u3501
  6723  15DF  2DE1               	goto	u3500
  6724  15E0                     u3501:	
  6725  15E0  2E25               	goto	l2495
  6726  15E1                     u3500:	
  6727  15E1                     l2461:	
  6728  15E1  1F6B               	btfss	___fladd@signs,6
  6729  15E2  2DE4               	goto	u3511
  6730  15E3  2DE5               	goto	u3510
  6731  15E4                     u3511:	
  6732  15E4  2DE9               	goto	l2465
  6733  15E5                     u3510:	
  6734  15E5                     l2463:	
  6735  15E5  3080               	movlw	128
  6736  15E6  00E3               	movwf	??___fladd
  6737  15E7  0863               	movf	??___fladd,w
  6738  15E8  06EB               	xorwf	___fladd@signs,f
  6739  15E9                     l2465:	
  6740  15E9  086D               	movf	___fladd@bexp,w
  6741  15EA  00E3               	movwf	??___fladd
  6742  15EB  0863               	movf	??___fladd,w
  6743  15EC  00EE               	movwf	___fladd@grs
  6744  15ED                     l2467:	
  6745  15ED  086C               	movf	___fladd@aexp,w
  6746  15EE  00E3               	movwf	??___fladd
  6747  15EF  0863               	movf	??___fladd,w
  6748  15F0  00ED               	movwf	___fladd@bexp
  6749  15F1                     l2469:	
  6750  15F1  086E               	movf	___fladd@grs,w
  6751  15F2  00E3               	movwf	??___fladd
  6752  15F3  0863               	movf	??___fladd,w
  6753  15F4  00EC               	movwf	___fladd@aexp
  6754  15F5                     l2471:	
  6755  15F5  085B               	movf	___fladd@b,w
  6756  15F6  00E3               	movwf	??___fladd
  6757  15F7  0863               	movf	??___fladd,w
  6758  15F8  00EE               	movwf	___fladd@grs
  6759  15F9                     l2473:	
  6760  15F9  085F               	movf	___fladd@a,w
  6761  15FA  00E3               	movwf	??___fladd
  6762  15FB  0863               	movf	??___fladd,w
  6763  15FC  00DB               	movwf	___fladd@b
  6764  15FD                     l2475:	
  6765  15FD  086E               	movf	___fladd@grs,w
  6766  15FE  00E3               	movwf	??___fladd
  6767  15FF  0863               	movf	??___fladd,w
  6768  1600  00DF               	movwf	___fladd@a
  6769  1601                     l2477:	
  6770  1601  085C               	movf	___fladd@b+1,w
  6771  1602  00E3               	movwf	??___fladd
  6772  1603  0863               	movf	??___fladd,w
  6773  1604  00EE               	movwf	___fladd@grs
  6774  1605                     l2479:	
  6775  1605  0860               	movf	___fladd@a+1,w
  6776  1606  00E3               	movwf	??___fladd
  6777  1607  0863               	movf	??___fladd,w
  6778  1608  00DC               	movwf	___fladd@b+1
  6779  1609                     l2481:	
  6780  1609  086E               	movf	___fladd@grs,w
  6781  160A  00E3               	movwf	??___fladd
  6782  160B  0863               	movf	??___fladd,w
  6783  160C  00E0               	movwf	___fladd@a+1
  6784  160D                     l2483:	
  6785  160D  085D               	movf	___fladd@b+2,w
  6786  160E  00E3               	movwf	??___fladd
  6787  160F  0863               	movf	??___fladd,w
  6788  1610  00EE               	movwf	___fladd@grs
  6789  1611                     l2485:	
  6790  1611  0861               	movf	___fladd@a+2,w
  6791  1612  00E3               	movwf	??___fladd
  6792  1613  0863               	movf	??___fladd,w
  6793  1614  00DD               	movwf	___fladd@b+2
  6794  1615                     l2487:	
  6795  1615  086E               	movf	___fladd@grs,w
  6796  1616  00E3               	movwf	??___fladd
  6797  1617  0863               	movf	??___fladd,w
  6798  1618  00E1               	movwf	___fladd@a+2
  6799  1619                     l2489:	
  6800  1619  085E               	movf	___fladd@b+3,w
  6801  161A  00E3               	movwf	??___fladd
  6802  161B  0863               	movf	??___fladd,w
  6803  161C  00EE               	movwf	___fladd@grs
  6804  161D                     l2491:	
  6805  161D  0862               	movf	___fladd@a+3,w
  6806  161E  00E3               	movwf	??___fladd
  6807  161F  0863               	movf	??___fladd,w
  6808  1620  00DE               	movwf	___fladd@b+3
  6809  1621                     l2493:	
  6810  1621  086E               	movf	___fladd@grs,w
  6811  1622  00E3               	movwf	??___fladd
  6812  1623  0863               	movf	??___fladd,w
  6813  1624  00E2               	movwf	___fladd@a+3
  6814  1625                     l2495:	
  6815  1625  01EE               	clrf	___fladd@grs
  6816  1626                     l2497:	
  6817  1626  086C               	movf	___fladd@aexp,w
  6818  1627  00E3               	movwf	??___fladd
  6819  1628  01E4               	clrf	??___fladd+1
  6820  1629  0864               	movf	??___fladd+1,w
  6821  162A  00E6               	movwf	??___fladd+3
  6822  162B  086D               	movf	___fladd@bexp,w
  6823  162C  0263               	subwf	??___fladd,w
  6824  162D  00E5               	movwf	??___fladd+2
  6825  162E  1C03               	skipc
  6826  162F  03E6               	decf	??___fladd+3,f
  6827  1630  0866               	movf	??___fladd+3,w
  6828  1631  3A80               	xorlw	128
  6829  1632  00FF               	movwf	btemp+1
  6830  1633  3080               	movlw	128
  6831  1634  027F               	subwf	btemp+1,w
  6832  1635  1D03               	skipz
  6833  1636  2E39               	goto	u3525
  6834  1637  301A               	movlw	26
  6835  1638  0265               	subwf	??___fladd+2,w
  6836  1639                     u3525:	
  6837  1639  1C03               	skipc
  6838  163A  2E3C               	goto	u3521
  6839  163B  2E3D               	goto	u3520
  6840  163C                     u3521:	
  6841  163C  2E7A               	goto	l2513
  6842  163D                     u3520:	
  6843  163D                     l2499:	
  6844  163D  1283               	bcf	3,5	;RP0=0, select bank0
  6845  163E  1303               	bcf	3,6	;RP1=0, select bank0
  6846  163F  085E               	movf	___fladd@b+3,w
  6847  1640  045D               	iorwf	___fladd@b+2,w
  6848  1641  045C               	iorwf	___fladd@b+1,w
  6849  1642  045B               	iorwf	___fladd@b,w
  6850  1643  1D03               	skipz
  6851  1644  2E46               	goto	u3531
  6852  1645  2E48               	goto	u3530
  6853  1646                     u3531:	
  6854  1646  3001               	movlw	1
  6855  1647  2E49               	goto	u3540
  6856  1648                     u3530:	
  6857  1648  3000               	movlw	0
  6858  1649                     u3540:	
  6859  1649  00E3               	movwf	??___fladd
  6860  164A  0863               	movf	??___fladd,w
  6861  164B  00EE               	movwf	___fladd@grs
  6862  164C  3000               	movlw	0
  6863  164D  00DE               	movwf	___fladd@b+3
  6864  164E  3000               	movlw	0
  6865  164F  00DD               	movwf	___fladd@b+2
  6866  1650  3000               	movlw	0
  6867  1651  00DC               	movwf	___fladd@b+1
  6868  1652  3000               	movlw	0
  6869  1653  00DB               	movwf	___fladd@b
  6870  1654  086C               	movf	___fladd@aexp,w
  6871  1655  00E3               	movwf	??___fladd
  6872  1656  0863               	movf	??___fladd,w
  6873  1657  00ED               	movwf	___fladd@bexp
  6874  1658  2E82               	goto	l649
  6875  1659                     l651:	
  6876  1659  1C6E               	btfss	___fladd@grs,0
  6877  165A  2E5C               	goto	u3551
  6878  165B  2E5D               	goto	u3550
  6879  165C                     u3551:	
  6880  165C  2E66               	goto	l2503
  6881  165D                     u3550:	
  6882  165D                     l2501:	
  6883  165D  086E               	movf	___fladd@grs,w
  6884  165E  00E3               	movwf	??___fladd
  6885  165F  1003               	clrc
  6886  1660  0C63               	rrf	??___fladd,w
  6887  1661  3801               	iorlw	1
  6888  1662  00E4               	movwf	??___fladd+1
  6889  1663  0864               	movf	??___fladd+1,w
  6890  1664  00EE               	movwf	___fladd@grs
  6891  1665  2E68               	goto	l2505
  6892  1666                     l2503:	
  6893  1666  1003               	clrc
  6894  1667  0CEE               	rrf	___fladd@grs,f
  6895  1668                     l2505:	
  6896  1668  1C5B               	btfss	___fladd@b,0
  6897  1669  2E6B               	goto	u3561
  6898  166A  2E6C               	goto	u3560
  6899  166B                     u3561:	
  6900  166B  2E6D               	goto	l2509
  6901  166C                     u3560:	
  6902  166C                     l2507:	
  6903  166C  17EE               	bsf	___fladd@grs,7
  6904  166D                     l2509:	
  6905  166D  3001               	movlw	1
  6906  166E  00E3               	movwf	??___fladd
  6907  166F                     u3575:	
  6908  166F  0D5E               	rlf	___fladd@b+3,w
  6909  1670  0CDE               	rrf	___fladd@b+3,f
  6910  1671  0CDD               	rrf	___fladd@b+2,f
  6911  1672  0CDC               	rrf	___fladd@b+1,f
  6912  1673  0CDB               	rrf	___fladd@b,f
  6913  1674  0BE3               	decfsz	??___fladd& (0+127),f
  6914  1675  2E6F               	goto	u3575
  6915  1676                     l2511:	
  6916  1676  3001               	movlw	1
  6917  1677  00E3               	movwf	??___fladd
  6918  1678  0863               	movf	??___fladd,w
  6919  1679  07ED               	addwf	___fladd@bexp,f
  6920  167A                     l2513:	
  6921  167A  1283               	bcf	3,5	;RP0=0, select bank0
  6922  167B  1303               	bcf	3,6	;RP1=0, select bank0
  6923  167C  086C               	movf	___fladd@aexp,w
  6924  167D  026D               	subwf	___fladd@bexp,w
  6925  167E  1C03               	skipc
  6926  167F  2E81               	goto	u3581
  6927  1680  2E82               	goto	u3580
  6928  1681                     u3581:	
  6929  1681  2E59               	goto	l651
  6930  1682                     u3580:	
  6931  1682                     l649:	
  6932  1682  1B6B               	btfsc	___fladd@signs,6
  6933  1683  2E85               	goto	u3591
  6934  1684  2E86               	goto	u3590
  6935  1685                     u3591:	
  6936  1685  2ED1               	goto	l2539
  6937  1686                     u3590:	
  6938  1686                     l2515:	
  6939  1686  086D               	movf	___fladd@bexp,w
  6940  1687  1D03               	btfss	3,2
  6941  1688  2E8A               	goto	u3601
  6942  1689  2E8B               	goto	u3600
  6943  168A                     u3601:	
  6944  168A  2E94               	goto	l2521
  6945  168B                     u3600:	
  6946  168B                     l2517:	
  6947  168B  3000               	movlw	0
  6948  168C  00DE               	movwf	?___fladd+3
  6949  168D  3000               	movlw	0
  6950  168E  00DD               	movwf	?___fladd+2
  6951  168F  3000               	movlw	0
  6952  1690  00DC               	movwf	?___fladd+1
  6953  1691  3000               	movlw	0
  6954  1692  00DB               	movwf	?___fladd
  6955  1693  2FFF               	goto	l658
  6956  1694                     l2521:	
  6957  1694  085F               	movf	___fladd@a,w
  6958  1695  07DB               	addwf	___fladd@b,f
  6959  1696  0860               	movf	___fladd@a+1,w
  6960  1697  1103               	clrz
  6961  1698  1803               	skipnc
  6962  1699  3E01               	addlw	1
  6963  169A  1903               	skipnz
  6964  169B  2E9D               	goto	u3611
  6965  169C  07DC               	addwf	___fladd@b+1,f
  6966  169D                     u3611:	
  6967  169D  0861               	movf	___fladd@a+2,w
  6968  169E  1103               	clrz
  6969  169F  1803               	skipnc
  6970  16A0  3E01               	addlw	1
  6971  16A1  1903               	skipnz
  6972  16A2  2EA4               	goto	u3612
  6973  16A3  07DD               	addwf	___fladd@b+2,f
  6974  16A4                     u3612:	
  6975  16A4  0862               	movf	___fladd@a+3,w
  6976  16A5  1103               	clrz
  6977  16A6  1803               	skipnc
  6978  16A7  3E01               	addlw	1
  6979  16A8  1903               	skipnz
  6980  16A9  2EAB               	goto	u3613
  6981  16AA  07DE               	addwf	___fladd@b+3,f
  6982  16AB                     u3613:	
  6983  16AB                     l2523:	
  6984  16AB  1C5E               	btfss	___fladd@b+3,0
  6985  16AC  2EAE               	goto	u3621
  6986  16AD  2EAF               	goto	u3620
  6987  16AE                     u3621:	
  6988  16AE  2F85               	goto	l2573
  6989  16AF                     u3620:	
  6990  16AF                     l2525:	
  6991  16AF  1C6E               	btfss	___fladd@grs,0
  6992  16B0  2EB2               	goto	u3631
  6993  16B1  2EB3               	goto	u3630
  6994  16B2                     u3631:	
  6995  16B2  2EBC               	goto	l2529
  6996  16B3                     u3630:	
  6997  16B3                     l2527:	
  6998  16B3  086E               	movf	___fladd@grs,w
  6999  16B4  00E3               	movwf	??___fladd
  7000  16B5  1003               	clrc
  7001  16B6  0C63               	rrf	??___fladd,w
  7002  16B7  3801               	iorlw	1
  7003  16B8  00E4               	movwf	??___fladd+1
  7004  16B9  0864               	movf	??___fladd+1,w
  7005  16BA  00EE               	movwf	___fladd@grs
  7006  16BB  2EBE               	goto	l2531
  7007  16BC                     l2529:	
  7008  16BC  1003               	clrc
  7009  16BD  0CEE               	rrf	___fladd@grs,f
  7010  16BE                     l2531:	
  7011  16BE  1C5B               	btfss	___fladd@b,0
  7012  16BF  2EC1               	goto	u3641
  7013  16C0  2EC2               	goto	u3640
  7014  16C1                     u3641:	
  7015  16C1  2EC3               	goto	l2535
  7016  16C2                     u3640:	
  7017  16C2                     l2533:	
  7018  16C2  17EE               	bsf	___fladd@grs,7
  7019  16C3                     l2535:	
  7020  16C3  3001               	movlw	1
  7021  16C4  00E3               	movwf	??___fladd
  7022  16C5                     u3655:	
  7023  16C5  0D5E               	rlf	___fladd@b+3,w
  7024  16C6  0CDE               	rrf	___fladd@b+3,f
  7025  16C7  0CDD               	rrf	___fladd@b+2,f
  7026  16C8  0CDC               	rrf	___fladd@b+1,f
  7027  16C9  0CDB               	rrf	___fladd@b,f
  7028  16CA  0BE3               	decfsz	??___fladd& (0+127),f
  7029  16CB  2EC5               	goto	u3655
  7030  16CC                     l2537:	
  7031  16CC  3001               	movlw	1
  7032  16CD  00E3               	movwf	??___fladd
  7033  16CE  0863               	movf	??___fladd,w
  7034  16CF  07ED               	addwf	___fladd@bexp,f
  7035  16D0  2F85               	goto	l2573
  7036  16D1                     l2539:	
  7037  16D1  085E               	movf	___fladd@b+3,w
  7038  16D2  3A80               	xorlw	128
  7039  16D3  00FF               	movwf	btemp+1
  7040  16D4  0862               	movf	___fladd@a+3,w
  7041  16D5  3A80               	xorlw	128
  7042  16D6  027F               	subwf	btemp+1,w
  7043  16D7  1D03               	skipz
  7044  16D8  2EE3               	goto	u3663
  7045  16D9  0861               	movf	___fladd@a+2,w
  7046  16DA  025D               	subwf	___fladd@b+2,w
  7047  16DB  1D03               	skipz
  7048  16DC  2EE3               	goto	u3663
  7049  16DD  0860               	movf	___fladd@a+1,w
  7050  16DE  025C               	subwf	___fladd@b+1,w
  7051  16DF  1D03               	skipz
  7052  16E0  2EE3               	goto	u3663
  7053  16E1  085F               	movf	___fladd@a,w
  7054  16E2  025B               	subwf	___fladd@b,w
  7055  16E3                     u3663:	
  7056  16E3  1803               	skipnc
  7057  16E4  2EE6               	goto	u3661
  7058  16E5  2EE7               	goto	u3660
  7059  16E6                     u3661:	
  7060  16E6  2F3F               	goto	l2549
  7061  16E7                     u3660:	
  7062  16E7                     l2541:	
  7063  16E7  30FF               	movlw	255
  7064  16E8  00E3               	movwf	??___fladd
  7065  16E9  30FF               	movlw	255
  7066  16EA  00E4               	movwf	??___fladd+1
  7067  16EB  30FF               	movlw	255
  7068  16EC  00E5               	movwf	??___fladd+2
  7069  16ED  30FF               	movlw	255
  7070  16EE  00E6               	movwf	??___fladd+3
  7071  16EF  085F               	movf	___fladd@a,w
  7072  16F0  00E7               	movwf	??___fladd+4
  7073  16F1  0860               	movf	___fladd@a+1,w
  7074  16F2  00E8               	movwf	??___fladd+5
  7075  16F3  0861               	movf	___fladd@a+2,w
  7076  16F4  00E9               	movwf	??___fladd+6
  7077  16F5  0862               	movf	___fladd@a+3,w
  7078  16F6  00EA               	movwf	??___fladd+7
  7079  16F7  085B               	movf	___fladd@b,w
  7080  16F8  02E7               	subwf	??___fladd+4,f
  7081  16F9  085C               	movf	___fladd@b+1,w
  7082  16FA  1C03               	skipc
  7083  16FB  0F5C               	incfsz	___fladd@b+1,w
  7084  16FC  2EFE               	goto	u3671
  7085  16FD  2EFF               	goto	u3672
  7086  16FE                     u3671:	
  7087  16FE  02E8               	subwf	??___fladd+5,f
  7088  16FF                     u3672:	
  7089  16FF  085D               	movf	___fladd@b+2,w
  7090  1700  1C03               	skipc
  7091  1701  0F5D               	incfsz	___fladd@b+2,w
  7092  1702  2F04               	goto	u3673
  7093  1703  2F05               	goto	u3674
  7094  1704                     u3673:	
  7095  1704  02E9               	subwf	??___fladd+6,f
  7096  1705                     u3674:	
  7097  1705  085E               	movf	___fladd@b+3,w
  7098  1706  1C03               	skipc
  7099  1707  0F5E               	incfsz	___fladd@b+3,w
  7100  1708  2F0A               	goto	u3675
  7101  1709  2F0B               	goto	u3676
  7102  170A                     u3675:	
  7103  170A  02EA               	subwf	??___fladd+7,f
  7104  170B                     u3676:	
  7105  170B  0867               	movf	??___fladd+4,w
  7106  170C  07E3               	addwf	??___fladd,f
  7107  170D  0868               	movf	??___fladd+5,w
  7108  170E  1803               	skipnc
  7109  170F  0F68               	incfsz	??___fladd+5,w
  7110  1710  2F12               	goto	u3680
  7111  1711  2F13               	goto	u3681
  7112  1712                     u3680:	
  7113  1712  07E4               	addwf	??___fladd+1,f
  7114  1713                     u3681:	
  7115  1713  0869               	movf	??___fladd+6,w
  7116  1714  1803               	skipnc
  7117  1715  0F69               	incfsz	??___fladd+6,w
  7118  1716  2F18               	goto	u3682
  7119  1717  2F19               	goto	u3683
  7120  1718                     u3682:	
  7121  1718  07E5               	addwf	??___fladd+2,f
  7122  1719                     u3683:	
  7123  1719  086A               	movf	??___fladd+7,w
  7124  171A  1803               	skipnc
  7125  171B  0A6A               	incf	??___fladd+7,w
  7126  171C  07E6               	addwf	??___fladd+3,f
  7127  171D  0866               	movf	??___fladd+3,w
  7128  171E  00DE               	movwf	___fladd@b+3
  7129  171F  0865               	movf	??___fladd+2,w
  7130  1720  00DD               	movwf	___fladd@b+2
  7131  1721  0864               	movf	??___fladd+1,w
  7132  1722  00DC               	movwf	___fladd@b+1
  7133  1723  0863               	movf	??___fladd,w
  7134  1724  00DB               	movwf	___fladd@b
  7135  1725                     l2543:	
  7136  1725  3080               	movlw	128
  7137  1726  00E3               	movwf	??___fladd
  7138  1727  0863               	movf	??___fladd,w
  7139  1728  06EB               	xorwf	___fladd@signs,f
  7140  1729  09EE               	comf	___fladd@grs,f
  7141  172A  0AEE               	incf	___fladd@grs,f
  7142  172B                     l2545:	
  7143  172B  086E               	movf	___fladd@grs,w
  7144  172C  1D03               	btfss	3,2
  7145  172D  2F2F               	goto	u3691
  7146  172E  2F30               	goto	u3690
  7147  172F                     u3691:	
  7148  172F  2F4D               	goto	l666
  7149  1730                     u3690:	
  7150  1730                     l2547:	
  7151  1730  3001               	movlw	1
  7152  1731  07DB               	addwf	___fladd@b,f
  7153  1732  3000               	movlw	0
  7154  1733  1803               	skipnc
  7155  1734  3001               	movlw	1
  7156  1735  07DC               	addwf	___fladd@b+1,f
  7157  1736  3000               	movlw	0
  7158  1737  1803               	skipnc
  7159  1738  3001               	movlw	1
  7160  1739  07DD               	addwf	___fladd@b+2,f
  7161  173A  3000               	movlw	0
  7162  173B  1803               	skipnc
  7163  173C  3001               	movlw	1
  7164  173D  07DE               	addwf	___fladd@b+3,f
  7165  173E  2F4D               	goto	l666
  7166  173F                     l2549:	
  7167  173F  085F               	movf	___fladd@a,w
  7168  1740  02DB               	subwf	___fladd@b,f
  7169  1741  0860               	movf	___fladd@a+1,w
  7170  1742  1C03               	skipc
  7171  1743  0F60               	incfsz	___fladd@a+1,w
  7172  1744  02DC               	subwf	___fladd@b+1,f
  7173  1745  0861               	movf	___fladd@a+2,w
  7174  1746  1C03               	skipc
  7175  1747  0F61               	incfsz	___fladd@a+2,w
  7176  1748  02DD               	subwf	___fladd@b+2,f
  7177  1749  0862               	movf	___fladd@a+3,w
  7178  174A  1C03               	skipc
  7179  174B  0F62               	incfsz	___fladd@a+3,w
  7180  174C  02DE               	subwf	___fladd@b+3,f
  7181  174D                     l666:	
  7182  174D  085E               	movf	___fladd@b+3,w
  7183  174E  045D               	iorwf	___fladd@b+2,w
  7184  174F  045C               	iorwf	___fladd@b+1,w
  7185  1750  045B               	iorwf	___fladd@b,w
  7186  1751  1D03               	skipz
  7187  1752  2F54               	goto	u3701
  7188  1753  2F55               	goto	u3700
  7189  1754                     u3701:	
  7190  1754  2F81               	goto	l2571
  7191  1755                     u3700:	
  7192  1755                     l2551:	
  7193  1755  086E               	movf	___fladd@grs,w
  7194  1756  1D03               	btfss	3,2
  7195  1757  2F59               	goto	u3711
  7196  1758  2F5A               	goto	u3710
  7197  1759                     u3711:	
  7198  1759  2F81               	goto	l2571
  7199  175A                     u3710:	
  7200  175A                     l2553:	
  7201  175A  3000               	movlw	0
  7202  175B  00DE               	movwf	?___fladd+3
  7203  175C  3000               	movlw	0
  7204  175D  00DD               	movwf	?___fladd+2
  7205  175E  3000               	movlw	0
  7206  175F  00DC               	movwf	?___fladd+1
  7207  1760  3000               	movlw	0
  7208  1761  00DB               	movwf	?___fladd
  7209  1762  2FFF               	goto	l658
  7210  1763                     l2557:	
  7211  1763  3001               	movlw	1
  7212  1764  00E3               	movwf	??___fladd
  7213  1765                     u3725:	
  7214  1765  1003               	clrc
  7215  1766  0DDB               	rlf	___fladd@b,f
  7216  1767  0DDC               	rlf	___fladd@b+1,f
  7217  1768  0DDD               	rlf	___fladd@b+2,f
  7218  1769  0DDE               	rlf	___fladd@b+3,f
  7219  176A  0BE3               	decfsz	??___fladd,f
  7220  176B  2F65               	goto	u3725
  7221  176C                     l2559:	
  7222  176C  1FEE               	btfss	___fladd@grs,7
  7223  176D  2F6F               	goto	u3731
  7224  176E  2F70               	goto	u3730
  7225  176F                     u3731:	
  7226  176F  2F71               	goto	l670
  7227  1770                     u3730:	
  7228  1770                     l2561:	
  7229  1770  145B               	bsf	___fladd@b,0
  7230  1771                     l670:	
  7231  1771  1C6E               	btfss	___fladd@grs,0
  7232  1772  2F74               	goto	u3741
  7233  1773  2F75               	goto	u3740
  7234  1774                     u3741:	
  7235  1774  2F78               	goto	l2565
  7236  1775                     u3740:	
  7237  1775                     l2563:	
  7238  1775  1403               	setc
  7239  1776  0DEE               	rlf	___fladd@grs,f
  7240  1777  2F7A               	goto	l2567
  7241  1778                     l2565:	
  7242  1778  1003               	clrc
  7243  1779  0DEE               	rlf	___fladd@grs,f
  7244  177A                     l2567:	
  7245  177A  086D               	movf	___fladd@bexp,w
  7246  177B  1903               	btfsc	3,2
  7247  177C  2F7E               	goto	u3751
  7248  177D  2F7F               	goto	u3750
  7249  177E                     u3751:	
  7250  177E  2F81               	goto	l2571
  7251  177F                     u3750:	
  7252  177F                     l2569:	
  7253  177F  3001               	movlw	1
  7254  1780  02ED               	subwf	___fladd@bexp,f
  7255  1781                     l2571:	
  7256  1781  1FDD               	btfss	___fladd@b+2,7
  7257  1782  2F84               	goto	u3761
  7258  1783  2F85               	goto	u3760
  7259  1784                     u3761:	
  7260  1784  2F63               	goto	l2557
  7261  1785                     u3760:	
  7262  1785                     l2573:	
  7263  1785  01EC               	clrf	___fladd@aexp
  7264  1786                     l2575:	
  7265  1786  1FEE               	btfss	___fladd@grs,7
  7266  1787  2F89               	goto	u3771
  7267  1788  2F8A               	goto	u3770
  7268  1789                     u3771:	
  7269  1789  2F98               	goto	l2583
  7270  178A                     u3770:	
  7271  178A                     l2577:	
  7272  178A  086E               	movf	___fladd@grs,w
  7273  178B  397F               	andlw	127
  7274  178C  1903               	btfsc	3,2
  7275  178D  2F8F               	goto	u3781
  7276  178E  2F90               	goto	u3780
  7277  178F                     u3781:	
  7278  178F  2F93               	goto	l676
  7279  1790                     u3780:	
  7280  1790                     l2579:	
  7281  1790  01EC               	clrf	___fladd@aexp
  7282  1791  0AEC               	incf	___fladd@aexp,f
  7283  1792  2F98               	goto	l2583
  7284  1793                     l676:	
  7285  1793  1C5B               	btfss	___fladd@b,0
  7286  1794  2F96               	goto	u3791
  7287  1795  2F97               	goto	u3790
  7288  1796                     u3791:	
  7289  1796  2F98               	goto	l2583
  7290  1797                     u3790:	
  7291  1797  2F90               	goto	l2579
  7292  1798                     l2583:	
  7293  1798  086C               	movf	___fladd@aexp,w
  7294  1799  1903               	btfsc	3,2
  7295  179A  2F9C               	goto	u3801
  7296  179B  2F9D               	goto	u3800
  7297  179C                     u3801:	
  7298  179C  2FD1               	goto	l679
  7299  179D                     u3800:	
  7300  179D                     l2585:	
  7301  179D  3001               	movlw	1
  7302  179E  07DB               	addwf	___fladd@b,f
  7303  179F  3000               	movlw	0
  7304  17A0  1803               	skipnc
  7305  17A1  3001               	movlw	1
  7306  17A2  07DC               	addwf	___fladd@b+1,f
  7307  17A3  3000               	movlw	0
  7308  17A4  1803               	skipnc
  7309  17A5  3001               	movlw	1
  7310  17A6  07DD               	addwf	___fladd@b+2,f
  7311  17A7  3000               	movlw	0
  7312  17A8  1803               	skipnc
  7313  17A9  3001               	movlw	1
  7314  17AA  07DE               	addwf	___fladd@b+3,f
  7315  17AB                     l2587:	
  7316  17AB  1C5E               	btfss	___fladd@b+3,0
  7317  17AC  2FAE               	goto	u3811
  7318  17AD  2FAF               	goto	u3810
  7319  17AE                     u3811:	
  7320  17AE  2FD1               	goto	l679
  7321  17AF                     u3810:	
  7322  17AF                     l2589:	
  7323  17AF  085B               	movf	___fladd@b,w
  7324  17B0  00E3               	movwf	??___fladd
  7325  17B1  085C               	movf	___fladd@b+1,w
  7326  17B2  00E4               	movwf	??___fladd+1
  7327  17B3  085D               	movf	___fladd@b+2,w
  7328  17B4  00E5               	movwf	??___fladd+2
  7329  17B5  085E               	movf	___fladd@b+3,w
  7330  17B6  00E6               	movwf	??___fladd+3
  7331  17B7  3001               	movlw	1
  7332  17B8  00E7               	movwf	??___fladd+4
  7333  17B9                     u3825:	
  7334  17B9  0D66               	rlf	??___fladd+3,w
  7335  17BA  0CE6               	rrf	??___fladd+3,f
  7336  17BB  0CE5               	rrf	??___fladd+2,f
  7337  17BC  0CE4               	rrf	??___fladd+1,f
  7338  17BD  0CE3               	rrf	??___fladd,f
  7339  17BE                     u3820:	
  7340  17BE  0BE7               	decfsz	??___fladd+4,f
  7341  17BF  2FB9               	goto	u3825
  7342  17C0  0866               	movf	??___fladd+3,w
  7343  17C1  00DE               	movwf	___fladd@b+3
  7344  17C2  0865               	movf	??___fladd+2,w
  7345  17C3  00DD               	movwf	___fladd@b+2
  7346  17C4  0864               	movf	??___fladd+1,w
  7347  17C5  00DC               	movwf	___fladd@b+1
  7348  17C6  0863               	movf	??___fladd,w
  7349  17C7  00DB               	movwf	___fladd@b
  7350  17C8  0A6D               	incf	___fladd@bexp,w
  7351  17C9  1903               	btfsc	3,2
  7352  17CA  2FCC               	goto	u3831
  7353  17CB  2FCD               	goto	u3830
  7354  17CC                     u3831:	
  7355  17CC  2FD1               	goto	l679
  7356  17CD                     u3830:	
  7357  17CD                     l2591:	
  7358  17CD  3001               	movlw	1
  7359  17CE  00E3               	movwf	??___fladd
  7360  17CF  0863               	movf	??___fladd,w
  7361  17D0  07ED               	addwf	___fladd@bexp,f
  7362  17D1                     l679:	
  7363  17D1  0A6D               	incf	___fladd@bexp,w
  7364  17D2  1903               	btfsc	3,2
  7365  17D3  2FD5               	goto	u3841
  7366  17D4  2FD6               	goto	u3840
  7367  17D5                     u3841:	
  7368  17D5  2FDB               	goto	l2595
  7369  17D6                     u3840:	
  7370  17D6                     l2593:	
  7371  17D6  086D               	movf	___fladd@bexp,w
  7372  17D7  1D03               	btfss	3,2
  7373  17D8  2FDA               	goto	u3851
  7374  17D9  2FDB               	goto	u3850
  7375  17DA                     u3851:	
  7376  17DA  2FE9               	goto	l2601
  7377  17DB                     u3850:	
  7378  17DB                     l2595:	
  7379  17DB  3000               	movlw	0
  7380  17DC  00DE               	movwf	___fladd@b+3
  7381  17DD  3000               	movlw	0
  7382  17DE  00DD               	movwf	___fladd@b+2
  7383  17DF  3000               	movlw	0
  7384  17E0  00DC               	movwf	___fladd@b+1
  7385  17E1  3000               	movlw	0
  7386  17E2  00DB               	movwf	___fladd@b
  7387  17E3                     l2597:	
  7388  17E3  086D               	movf	___fladd@bexp,w
  7389  17E4  1D03               	btfss	3,2
  7390  17E5  2FE7               	goto	u3861
  7391  17E6  2FE8               	goto	u3860
  7392  17E7                     u3861:	
  7393  17E7  2FE9               	goto	l2601
  7394  17E8                     u3860:	
  7395  17E8                     l2599:	
  7396  17E8  01EB               	clrf	___fladd@signs
  7397  17E9                     l2601:	
  7398  17E9  1C6D               	btfss	___fladd@bexp,0
  7399  17EA  2FEC               	goto	u3871
  7400  17EB  2FED               	goto	u3870
  7401  17EC                     u3871:	
  7402  17EC  2FEF               	goto	l2605
  7403  17ED                     u3870:	
  7404  17ED                     l2603:	
  7405  17ED  17DD               	bsf	___fladd@b+2,7
  7406  17EE  2FF3               	goto	l687
  7407  17EF                     l2605:	
  7408  17EF  307F               	movlw	127
  7409  17F0  00E3               	movwf	??___fladd
  7410  17F1  0863               	movf	??___fladd,w
  7411  17F2  05DD               	andwf	___fladd@b+2,f
  7412  17F3                     l687:	
  7413  17F3  086D               	movf	___fladd@bexp,w
  7414  17F4  00E3               	movwf	??___fladd
  7415  17F5  1003               	clrc
  7416  17F6  0C63               	rrf	??___fladd,w
  7417  17F7  00E4               	movwf	??___fladd+1
  7418  17F8  0864               	movf	??___fladd+1,w
  7419  17F9  00DE               	movwf	___fladd@b+3
  7420  17FA                     l2607:	
  7421  17FA  1FEB               	btfss	___fladd@signs,7
  7422  17FB  2FFD               	goto	u3881
  7423  17FC  2FFE               	goto	u3880
  7424  17FD                     u3881:	
  7425  17FD  2FFF               	goto	l688
  7426  17FE                     u3880:	
  7427  17FE                     l2609:	
  7428  17FE  17DE               	bsf	___fladd@b+3,7
  7429  17FF                     l688:	
  7430  17FF                     l658:	
  7431  17FF  0008               	return
  7432  1800                     __end_of___fladd:	
  7433                           
  7434                           	psect	text17
  7435  0004                     __ptext17:	
  7436 ;; *************** function ___flneg *****************
  7437 ;; Defined at:
  7438 ;;		line 15 in file "C:\Program Files (x86)\Microchip\xc8\v2.10\pic\sources\c90\common\flneg.c"
  7439 ;; Parameters:    Size  Location     Type
  7440 ;;  f1              4    0[COMMON] unsigned char 
  7441 ;; Auto vars:     Size  Location     Type
  7442 ;;		None
  7443 ;; Return value:  Size  Location     Type
  7444 ;;                  4    0[COMMON] unsigned char 
  7445 ;; Registers used:
  7446 ;;		wreg
  7447 ;; Tracked objects:
  7448 ;;		On entry : 0/0
  7449 ;;		On exit  : 0/0
  7450 ;;		Unchanged: 0/0
  7451 ;; Data sizes:     COMMON   BANK0   BANK1   BANK3   BANK2
  7452 ;;      Params:         4       0       0       0       0
  7453 ;;      Locals:         0       0       0       0       0
  7454 ;;      Temps:          0       0       0       0       0
  7455 ;;      Totals:         4       0       0       0       0
  7456 ;;Total ram usage:        4 bytes
  7457 ;; Hardware stack levels used:    1
  7458 ;; This function calls:
  7459 ;;		Nothing
  7460 ;; This function is called by:
  7461 ;;		_sprintf
  7462 ;; This function uses a non-reentrant model
  7463 ;;
  7464                           
  7465                           
  7466                           ;psect for function ___flneg
  7467  0004                     ___flneg:	
  7468  0004                     l2999:	
  7469                           ;incstack = 0
  7470                           ; Regs used in ___flneg: [wreg]
  7471                           
  7472  0004  0873               	movf	___flneg@f1+3,w
  7473  0005  0472               	iorwf	___flneg@f1+2,w
  7474  0006  0471               	iorwf	___flneg@f1+1,w
  7475  0007  0470               	iorwf	___flneg@f1,w
  7476  0008  1903               	skipnz
  7477  0009  280B               	goto	u5021
  7478  000A  280C               	goto	u5020
  7479  000B                     u5021:	
  7480  000B  280E               	goto	l3003
  7481  000C                     u5020:	
  7482  000C                     l3001:	
  7483  000C  3080               	movlw	128
  7484  000D  06F3               	xorwf	___flneg@f1+3,f
  7485  000E                     l3003:	
  7486  000E                     l517:	
  7487  000E  0008               	return
  7488  000F                     __end_of___flneg:	
  7489                           
  7490                           	psect	text18
  7491  1EA4                     __ptext18:	
  7492 ;; *************** function ___flge *****************
  7493 ;; Defined at:
  7494 ;;		line 4 in file "C:\Program Files (x86)\Microchip\xc8\v2.10\pic\sources\c90\common\flge.c"
  7495 ;; Parameters:    Size  Location     Type
  7496 ;;  ff1             4    0[COMMON] unsigned char 
  7497 ;;  ff2             4    4[COMMON] unsigned char 
  7498 ;; Auto vars:     Size  Location     Type
  7499 ;;		None
  7500 ;; Return value:  Size  Location     Type
  7501 ;;		None               void
  7502 ;; Registers used:
  7503 ;;		wreg, status,2, status,0
  7504 ;; Tracked objects:
  7505 ;;		On entry : 0/0
  7506 ;;		On exit  : 0/0
  7507 ;;		Unchanged: 0/0
  7508 ;; Data sizes:     COMMON   BANK0   BANK1   BANK3   BANK2
  7509 ;;      Params:         8       0       0       0       0
  7510 ;;      Locals:         0       0       0       0       0
  7511 ;;      Temps:          4       0       0       0       0
  7512 ;;      Totals:        12       0       0       0       0
  7513 ;;Total ram usage:       12 bytes
  7514 ;; Hardware stack levels used:    1
  7515 ;; This function calls:
  7516 ;;		Nothing
  7517 ;; This function is called by:
  7518 ;;		_main
  7519 ;;		_sprintf
  7520 ;; This function uses a non-reentrant model
  7521 ;;
  7522                           
  7523                           
  7524                           ;psect for function ___flge
  7525  1EA4                     ___flge:	
  7526  1EA4                     l2979:	
  7527                           ;incstack = 0
  7528                           ; Regs used in ___flge: [wreg+status,2+status,0]
  7529                           
  7530  1EA4  3000               	movlw	0
  7531  1EA5  0570               	andwf	___flge@ff1,w
  7532  1EA6  00F8               	movwf	??___flge
  7533  1EA7  3000               	movlw	0
  7534  1EA8  0571               	andwf	___flge@ff1+1,w
  7535  1EA9  00F9               	movwf	??___flge+1
  7536  1EAA  3080               	movlw	128
  7537  1EAB  0572               	andwf	___flge@ff1+2,w
  7538  1EAC  00FA               	movwf	??___flge+2
  7539  1EAD  307F               	movlw	127
  7540  1EAE  0573               	andwf	___flge@ff1+3,w
  7541  1EAF  00FB               	movwf	??___flge+3
  7542  1EB0  087B               	movf	??___flge+3,w
  7543  1EB1  047A               	iorwf	??___flge+2,w
  7544  1EB2  0479               	iorwf	??___flge+1,w
  7545  1EB3  0478               	iorwf	??___flge,w
  7546  1EB4  1D03               	skipz
  7547  1EB5  2EB7               	goto	u4951
  7548  1EB6  2EB8               	goto	u4950
  7549  1EB7                     u4951:	
  7550  1EB7  2EC0               	goto	l509
  7551  1EB8                     u4950:	
  7552  1EB8                     l2981:	
  7553  1EB8  3000               	movlw	0
  7554  1EB9  00F3               	movwf	___flge@ff1+3
  7555  1EBA  3000               	movlw	0
  7556  1EBB  00F2               	movwf	___flge@ff1+2
  7557  1EBC  3000               	movlw	0
  7558  1EBD  00F1               	movwf	___flge@ff1+1
  7559  1EBE  3000               	movlw	0
  7560  1EBF  00F0               	movwf	___flge@ff1
  7561  1EC0                     l509:	
  7562  1EC0  3000               	movlw	0
  7563  1EC1  0574               	andwf	___flge@ff2,w
  7564  1EC2  00F8               	movwf	??___flge
  7565  1EC3  3000               	movlw	0
  7566  1EC4  0575               	andwf	___flge@ff2+1,w
  7567  1EC5  00F9               	movwf	??___flge+1
  7568  1EC6  3080               	movlw	128
  7569  1EC7  0576               	andwf	___flge@ff2+2,w
  7570  1EC8  00FA               	movwf	??___flge+2
  7571  1EC9  307F               	movlw	127
  7572  1ECA  0577               	andwf	___flge@ff2+3,w
  7573  1ECB  00FB               	movwf	??___flge+3
  7574  1ECC  087B               	movf	??___flge+3,w
  7575  1ECD  047A               	iorwf	??___flge+2,w
  7576  1ECE  0479               	iorwf	??___flge+1,w
  7577  1ECF  0478               	iorwf	??___flge,w
  7578  1ED0  1D03               	skipz
  7579  1ED1  2ED3               	goto	u4961
  7580  1ED2  2ED4               	goto	u4960
  7581  1ED3                     u4961:	
  7582  1ED3  2EDC               	goto	l2985
  7583  1ED4                     u4960:	
  7584  1ED4                     l2983:	
  7585  1ED4  3000               	movlw	0
  7586  1ED5  00F7               	movwf	___flge@ff2+3
  7587  1ED6  3000               	movlw	0
  7588  1ED7  00F6               	movwf	___flge@ff2+2
  7589  1ED8  3000               	movlw	0
  7590  1ED9  00F5               	movwf	___flge@ff2+1
  7591  1EDA  3000               	movlw	0
  7592  1EDB  00F4               	movwf	___flge@ff2
  7593  1EDC                     l2985:	
  7594  1EDC  1FF3               	btfss	___flge@ff1+3,7
  7595  1EDD  2EDF               	goto	u4971
  7596  1EDE  2EE0               	goto	u4970
  7597  1EDF                     u4971:	
  7598  1EDF  2F04               	goto	l2989
  7599  1EE0                     u4970:	
  7600  1EE0                     l2987:	
  7601  1EE0  3000               	movlw	0
  7602  1EE1  00F8               	movwf	??___flge
  7603  1EE2  3000               	movlw	0
  7604  1EE3  00F9               	movwf	??___flge+1
  7605  1EE4  3000               	movlw	0
  7606  1EE5  00FA               	movwf	??___flge+2
  7607  1EE6  3080               	movlw	128
  7608  1EE7  00FB               	movwf	??___flge+3
  7609  1EE8  0870               	movf	___flge@ff1,w
  7610  1EE9  02F8               	subwf	??___flge,f
  7611  1EEA  0871               	movf	___flge@ff1+1,w
  7612  1EEB  1C03               	skipc
  7613  1EEC  0F71               	incfsz	___flge@ff1+1,w
  7614  1EED  2EEF               	goto	u4981
  7615  1EEE  2EF0               	goto	u4982
  7616  1EEF                     u4981:	
  7617  1EEF  02F9               	subwf	??___flge+1,f
  7618  1EF0                     u4982:	
  7619  1EF0  0872               	movf	___flge@ff1+2,w
  7620  1EF1  1C03               	skipc
  7621  1EF2  0F72               	incfsz	___flge@ff1+2,w
  7622  1EF3  2EF5               	goto	u4983
  7623  1EF4  2EF6               	goto	u4984
  7624  1EF5                     u4983:	
  7625  1EF5  02FA               	subwf	??___flge+2,f
  7626  1EF6                     u4984:	
  7627  1EF6  0873               	movf	___flge@ff1+3,w
  7628  1EF7  1C03               	skipc
  7629  1EF8  0F73               	incfsz	___flge@ff1+3,w
  7630  1EF9  2EFB               	goto	u4985
  7631  1EFA  2EFC               	goto	u4986
  7632  1EFB                     u4985:	
  7633  1EFB  02FB               	subwf	??___flge+3,f
  7634  1EFC                     u4986:	
  7635  1EFC  087B               	movf	??___flge+3,w
  7636  1EFD  00F3               	movwf	___flge@ff1+3
  7637  1EFE  087A               	movf	??___flge+2,w
  7638  1EFF  00F2               	movwf	___flge@ff1+2
  7639  1F00  0879               	movf	??___flge+1,w
  7640  1F01  00F1               	movwf	___flge@ff1+1
  7641  1F02  0878               	movf	??___flge,w
  7642  1F03  00F0               	movwf	___flge@ff1
  7643  1F04                     l2989:	
  7644  1F04  1FF7               	btfss	___flge@ff2+3,7
  7645  1F05  2F07               	goto	u4991
  7646  1F06  2F08               	goto	u4990
  7647  1F07                     u4991:	
  7648  1F07  2F2C               	goto	l512
  7649  1F08                     u4990:	
  7650  1F08                     l2991:	
  7651  1F08  3000               	movlw	0
  7652  1F09  00F8               	movwf	??___flge
  7653  1F0A  3000               	movlw	0
  7654  1F0B  00F9               	movwf	??___flge+1
  7655  1F0C  3000               	movlw	0
  7656  1F0D  00FA               	movwf	??___flge+2
  7657  1F0E  3080               	movlw	128
  7658  1F0F  00FB               	movwf	??___flge+3
  7659  1F10  0874               	movf	___flge@ff2,w
  7660  1F11  02F8               	subwf	??___flge,f
  7661  1F12  0875               	movf	___flge@ff2+1,w
  7662  1F13  1C03               	skipc
  7663  1F14  0F75               	incfsz	___flge@ff2+1,w
  7664  1F15  2F17               	goto	u5001
  7665  1F16  2F18               	goto	u5002
  7666  1F17                     u5001:	
  7667  1F17  02F9               	subwf	??___flge+1,f
  7668  1F18                     u5002:	
  7669  1F18  0876               	movf	___flge@ff2+2,w
  7670  1F19  1C03               	skipc
  7671  1F1A  0F76               	incfsz	___flge@ff2+2,w
  7672  1F1B  2F1D               	goto	u5003
  7673  1F1C  2F1E               	goto	u5004
  7674  1F1D                     u5003:	
  7675  1F1D  02FA               	subwf	??___flge+2,f
  7676  1F1E                     u5004:	
  7677  1F1E  0877               	movf	___flge@ff2+3,w
  7678  1F1F  1C03               	skipc
  7679  1F20  0F77               	incfsz	___flge@ff2+3,w
  7680  1F21  2F23               	goto	u5005
  7681  1F22  2F24               	goto	u5006
  7682  1F23                     u5005:	
  7683  1F23  02FB               	subwf	??___flge+3,f
  7684  1F24                     u5006:	
  7685  1F24  087B               	movf	??___flge+3,w
  7686  1F25  00F7               	movwf	___flge@ff2+3
  7687  1F26  087A               	movf	??___flge+2,w
  7688  1F27  00F6               	movwf	___flge@ff2+2
  7689  1F28  0879               	movf	??___flge+1,w
  7690  1F29  00F5               	movwf	___flge@ff2+1
  7691  1F2A  0878               	movf	??___flge,w
  7692  1F2B  00F4               	movwf	___flge@ff2
  7693  1F2C                     l512:	
  7694  1F2C  3080               	movlw	128
  7695  1F2D  06F3               	xorwf	___flge@ff1+3,f
  7696  1F2E  3080               	movlw	128
  7697  1F2F  06F7               	xorwf	___flge@ff2+3,f
  7698  1F30  0877               	movf	___flge@ff2+3,w
  7699  1F31  0273               	subwf	___flge@ff1+3,w
  7700  1F32  1D03               	skipz
  7701  1F33  2F3E               	goto	u5015
  7702  1F34  0876               	movf	___flge@ff2+2,w
  7703  1F35  0272               	subwf	___flge@ff1+2,w
  7704  1F36  1D03               	skipz
  7705  1F37  2F3E               	goto	u5015
  7706  1F38  0875               	movf	___flge@ff2+1,w
  7707  1F39  0271               	subwf	___flge@ff1+1,w
  7708  1F3A  1D03               	skipz
  7709  1F3B  2F3E               	goto	u5015
  7710  1F3C  0874               	movf	___flge@ff2,w
  7711  1F3D  0270               	subwf	___flge@ff1,w
  7712  1F3E                     u5015:	
  7713  1F3E  1803               	skipnc
  7714  1F3F  2F41               	goto	u5011
  7715  1F40  2F42               	goto	u5010
  7716  1F41                     u5011:	
  7717  1F41  2F44               	goto	l2995
  7718  1F42                     u5010:	
  7719  1F42                     l2993:	
  7720  1F42  1003               	clrc
  7721  1F43  2F45               	goto	l513
  7722  1F44                     l2995:	
  7723  1F44  1403               	setc
  7724  1F45                     l513:	
  7725  1F45  0008               	return
  7726  1F46                     __end_of___flge:	
  7727                           
  7728                           	psect	text19
  7729  1C8B                     __ptext19:	
  7730 ;; *************** function ___fleq *****************
  7731 ;; Defined at:
  7732 ;;		line 4 in file "C:\Program Files (x86)\Microchip\xc8\v2.10\pic\sources\c90\common\fleq.c"
  7733 ;; Parameters:    Size  Location     Type
  7734 ;;  ff1             4    0[COMMON] unsigned char 
  7735 ;;  ff2             4    4[COMMON] unsigned char 
  7736 ;; Auto vars:     Size  Location     Type
  7737 ;;		None
  7738 ;; Return value:  Size  Location     Type
  7739 ;;		None               void
  7740 ;; Registers used:
  7741 ;;		wreg, status,2, status,0
  7742 ;; Tracked objects:
  7743 ;;		On entry : 0/0
  7744 ;;		On exit  : 0/0
  7745 ;;		Unchanged: 0/0
  7746 ;; Data sizes:     COMMON   BANK0   BANK1   BANK3   BANK2
  7747 ;;      Params:         8       0       0       0       0
  7748 ;;      Locals:         0       0       0       0       0
  7749 ;;      Temps:          4       0       0       0       0
  7750 ;;      Totals:        12       0       0       0       0
  7751 ;;Total ram usage:       12 bytes
  7752 ;; Hardware stack levels used:    1
  7753 ;; This function calls:
  7754 ;;		Nothing
  7755 ;; This function is called by:
  7756 ;;		_sprintf
  7757 ;; This function uses a non-reentrant model
  7758 ;;
  7759                           
  7760                           
  7761                           ;psect for function ___fleq
  7762  1C8B                     ___fleq:	
  7763  1C8B                     l2967:	
  7764                           ;incstack = 0
  7765                           ; Regs used in ___fleq: [wreg+status,2+status,0]
  7766                           
  7767  1C8B  3000               	movlw	0
  7768  1C8C  0570               	andwf	___fleq@ff1,w
  7769  1C8D  00F8               	movwf	??___fleq
  7770  1C8E  3000               	movlw	0
  7771  1C8F  0571               	andwf	___fleq@ff1+1,w
  7772  1C90  00F9               	movwf	??___fleq+1
  7773  1C91  3080               	movlw	128
  7774  1C92  0572               	andwf	___fleq@ff1+2,w
  7775  1C93  00FA               	movwf	??___fleq+2
  7776  1C94  307F               	movlw	127
  7777  1C95  0573               	andwf	___fleq@ff1+3,w
  7778  1C96  00FB               	movwf	??___fleq+3
  7779  1C97  087B               	movf	??___fleq+3,w
  7780  1C98  047A               	iorwf	??___fleq+2,w
  7781  1C99  0479               	iorwf	??___fleq+1,w
  7782  1C9A  0478               	iorwf	??___fleq,w
  7783  1C9B  1D03               	skipz
  7784  1C9C  2C9E               	goto	u4921
  7785  1C9D  2C9F               	goto	u4920
  7786  1C9E                     u4921:	
  7787  1C9E  2CA7               	goto	l504
  7788  1C9F                     u4920:	
  7789  1C9F                     l2969:	
  7790  1C9F  3000               	movlw	0
  7791  1CA0  00F3               	movwf	___fleq@ff1+3
  7792  1CA1  3000               	movlw	0
  7793  1CA2  00F2               	movwf	___fleq@ff1+2
  7794  1CA3  3000               	movlw	0
  7795  1CA4  00F1               	movwf	___fleq@ff1+1
  7796  1CA5  3000               	movlw	0
  7797  1CA6  00F0               	movwf	___fleq@ff1
  7798  1CA7                     l504:	
  7799  1CA7  3000               	movlw	0
  7800  1CA8  0574               	andwf	___fleq@ff2,w
  7801  1CA9  00F8               	movwf	??___fleq
  7802  1CAA  3000               	movlw	0
  7803  1CAB  0575               	andwf	___fleq@ff2+1,w
  7804  1CAC  00F9               	movwf	??___fleq+1
  7805  1CAD  3080               	movlw	128
  7806  1CAE  0576               	andwf	___fleq@ff2+2,w
  7807  1CAF  00FA               	movwf	??___fleq+2
  7808  1CB0  307F               	movlw	127
  7809  1CB1  0577               	andwf	___fleq@ff2+3,w
  7810  1CB2  00FB               	movwf	??___fleq+3
  7811  1CB3  087B               	movf	??___fleq+3,w
  7812  1CB4  047A               	iorwf	??___fleq+2,w
  7813  1CB5  0479               	iorwf	??___fleq+1,w
  7814  1CB6  0478               	iorwf	??___fleq,w
  7815  1CB7  1D03               	skipz
  7816  1CB8  2CBA               	goto	u4931
  7817  1CB9  2CBB               	goto	u4930
  7818  1CBA                     u4931:	
  7819  1CBA  2CC3               	goto	l505
  7820  1CBB                     u4930:	
  7821  1CBB                     l2971:	
  7822  1CBB  3000               	movlw	0
  7823  1CBC  00F7               	movwf	___fleq@ff2+3
  7824  1CBD  3000               	movlw	0
  7825  1CBE  00F6               	movwf	___fleq@ff2+2
  7826  1CBF  3000               	movlw	0
  7827  1CC0  00F5               	movwf	___fleq@ff2+1
  7828  1CC1  3000               	movlw	0
  7829  1CC2  00F4               	movwf	___fleq@ff2
  7830  1CC3                     l505:	
  7831  1CC3  0877               	movf	___fleq@ff2+3,w
  7832  1CC4  0673               	xorwf	___fleq@ff1+3,w
  7833  1CC5  1D03               	skipz
  7834  1CC6  2CD1               	goto	u4945
  7835  1CC7  0876               	movf	___fleq@ff2+2,w
  7836  1CC8  0672               	xorwf	___fleq@ff1+2,w
  7837  1CC9  1D03               	skipz
  7838  1CCA  2CD1               	goto	u4945
  7839  1CCB  0875               	movf	___fleq@ff2+1,w
  7840  1CCC  0671               	xorwf	___fleq@ff1+1,w
  7841  1CCD  1D03               	skipz
  7842  1CCE  2CD1               	goto	u4945
  7843  1CCF  0874               	movf	___fleq@ff2,w
  7844  1CD0  0670               	xorwf	___fleq@ff1,w
  7845  1CD1                     u4945:	
  7846  1CD1  1903               	skipnz
  7847  1CD2  2CD4               	goto	u4941
  7848  1CD3  2CD5               	goto	u4940
  7849  1CD4                     u4941:	
  7850  1CD4  2CD7               	goto	l2975
  7851  1CD5                     u4940:	
  7852  1CD5                     l2973:	
  7853  1CD5  1003               	clrc
  7854  1CD6  2CD8               	goto	l506
  7855  1CD7                     l2975:	
  7856  1CD7  1403               	setc
  7857  1CD8                     l506:	
  7858  1CD8  0008               	return
  7859  1CD9                     __end_of___fleq:	
  7860                           
  7861                           	psect	text20
  7862  1E3C                     __ptext20:	
  7863 ;; *************** function _read_ADC *****************
  7864 ;; Defined at:
  7865 ;;		line 35 in file "adc.c"
  7866 ;; Parameters:    Size  Location     Type
  7867 ;;		None
  7868 ;; Auto vars:     Size  Location     Type
  7869 ;;  data            4   45[BANK0 ] float 
  7870 ;; Return value:  Size  Location     Type
  7871 ;;                  4   39[BANK0 ] float 
  7872 ;; Registers used:
  7873 ;;		wreg, status,2, status,0, btemp+1, pclath, cstack
  7874 ;; Tracked objects:
  7875 ;;		On entry : 0/0
  7876 ;;		On exit  : 0/0
  7877 ;;		Unchanged: 0/0
  7878 ;; Data sizes:     COMMON   BANK0   BANK1   BANK3   BANK2
  7879 ;;      Params:         0       4       0       0       0
  7880 ;;      Locals:         0       4       0       0       0
  7881 ;;      Temps:          0       2       0       0       0
  7882 ;;      Totals:         0      10       0       0       0
  7883 ;;Total ram usage:       10 bytes
  7884 ;; Hardware stack levels used:    1
  7885 ;; Hardware stack levels required when called:    2
  7886 ;; This function calls:
  7887 ;;		___fldiv
  7888 ;;		___flmul
  7889 ;;		___xxtofl
  7890 ;; This function is called by:
  7891 ;;		_main
  7892 ;; This function uses a non-reentrant model
  7893 ;;
  7894                           
  7895                           
  7896                           ;psect for function _read_ADC
  7897  1E3C                     _read_ADC:	
  7898  1E3C                     l3319:	
  7899                           ;incstack = 0
  7900                           ; Regs used in _read_ADC: [wreg+status,2+status,0+btemp+1+pclath+cstack]
  7901                           
  7902  1E3C                     l3321:	
  7903                           
  7904                           ;adc.c: 38:     data = ((ADRESH << 8) + ADRESL);
  7905  1E3C  1283               	bcf	3,5	;RP0=0, select bank0
  7906  1E3D  1303               	bcf	3,6	;RP1=0, select bank0
  7907  1E3E  081E               	movf	30,w	;volatile
  7908  1E3F  00CB               	movwf	??_read_ADC
  7909  1E40  01CC               	clrf	??_read_ADC+1
  7910  1E41  084B               	movf	??_read_ADC,w
  7911  1E42  00CC               	movwf	??_read_ADC+1
  7912  1E43  01CB               	clrf	??_read_ADC
  7913  1E44  1683               	bsf	3,5	;RP0=1, select bank1
  7914  1E45  1303               	bcf	3,6	;RP1=0, select bank1
  7915  1E46  081E               	movf	30,w	;volatile
  7916  1E47  1283               	bcf	3,5	;RP0=0, select bank0
  7917  1E48  1303               	bcf	3,6	;RP1=0, select bank0
  7918  1E49  074B               	addwf	??_read_ADC,w
  7919  1E4A  00F0               	movwf	___xxtofl@val
  7920  1E4B  3000               	movlw	0
  7921  1E4C  1803               	skipnc
  7922  1E4D  3001               	movlw	1
  7923  1E4E  074C               	addwf	??_read_ADC+1,w
  7924  1E4F  00F1               	movwf	___xxtofl@val+1
  7925  1E50  01F2               	clrf	___xxtofl@val+2
  7926  1E51  1BF1               	btfsc	___xxtofl@val+1,7
  7927  1E52  03F2               	decf	___xxtofl@val+2,f
  7928  1E53  0872               	movf	___xxtofl@val+2,w
  7929  1E54  00F3               	movwf	___xxtofl@val+3
  7930  1E55  3001               	movlw	1
  7931  1E56  160A  158A  2746  160A  158A  	fcall	___xxtofl
  7932  1E5B  0873               	movf	?___xxtofl+3,w
  7933  1E5C  1283               	bcf	3,5	;RP0=0, select bank0
  7934  1E5D  1303               	bcf	3,6	;RP1=0, select bank0
  7935  1E5E  00D0               	movwf	read_ADC@data+3
  7936  1E5F  0872               	movf	?___xxtofl+2,w
  7937  1E60  00CF               	movwf	read_ADC@data+2
  7938  1E61  0871               	movf	?___xxtofl+1,w
  7939  1E62  00CE               	movwf	read_ADC@data+1
  7940  1E63  0870               	movf	?___xxtofl,w
  7941  1E64  00CD               	movwf	read_ADC@data
  7942  1E65                     l3323:	
  7943                           
  7944                           ;adc.c: 39:     data = (data/1023.0 * 100);
  7945  1E65  3042               	movlw	66
  7946  1E66  00B0               	movwf	___flmul@b+3
  7947  1E67  30C8               	movlw	200
  7948  1E68  00AF               	movwf	___flmul@b+2
  7949  1E69  3000               	movlw	0
  7950  1E6A  00AE               	movwf	___flmul@b+1
  7951  1E6B  3000               	movlw	0
  7952  1E6C  00AD               	movwf	___flmul@b
  7953  1E6D  3044               	movlw	68
  7954  1E6E  00F3               	movwf	___fldiv@a+3
  7955  1E6F  307F               	movlw	127
  7956  1E70  00F2               	movwf	___fldiv@a+2
  7957  1E71  30C0               	movlw	192
  7958  1E72  00F1               	movwf	___fldiv@a+1
  7959  1E73  3000               	movlw	0
  7960  1E74  00F0               	movwf	___fldiv@a
  7961  1E75  0850               	movf	read_ADC@data+3,w
  7962  1E76  00F7               	movwf	___fldiv@b+3
  7963  1E77  084F               	movf	read_ADC@data+2,w
  7964  1E78  00F6               	movwf	___fldiv@b+2
  7965  1E79  084E               	movf	read_ADC@data+1,w
  7966  1E7A  00F5               	movwf	___fldiv@b+1
  7967  1E7B  084D               	movf	read_ADC@data,w
  7968  1E7C  00F4               	movwf	___fldiv@b
  7969  1E7D  160A  118A  218A  160A  158A  	fcall	___fldiv
  7970  1E82  0873               	movf	?___fldiv+3,w
  7971  1E83  1283               	bcf	3,5	;RP0=0, select bank0
  7972  1E84  1303               	bcf	3,6	;RP1=0, select bank0
  7973  1E85  00B4               	movwf	___flmul@a+3
  7974  1E86  0872               	movf	?___fldiv+2,w
  7975  1E87  00B3               	movwf	___flmul@a+2
  7976  1E88  0871               	movf	?___fldiv+1,w
  7977  1E89  00B2               	movwf	___flmul@a+1
  7978  1E8A  0870               	movf	?___fldiv,w
  7979  1E8B  00B1               	movwf	___flmul@a
  7980  1E8C  120A  158A  249F  160A  158A  	fcall	___flmul
  7981  1E91  1283               	bcf	3,5	;RP0=0, select bank0
  7982  1E92  1303               	bcf	3,6	;RP1=0, select bank0
  7983  1E93  0830               	movf	?___flmul+3,w
  7984  1E94  00D0               	movwf	read_ADC@data+3
  7985  1E95  082F               	movf	?___flmul+2,w
  7986  1E96  00CF               	movwf	read_ADC@data+2
  7987  1E97  082E               	movf	?___flmul+1,w
  7988  1E98  00CE               	movwf	read_ADC@data+1
  7989  1E99  082D               	movf	?___flmul,w
  7990  1E9A  00CD               	movwf	read_ADC@data
  7991                           
  7992                           ;adc.c: 40:     return data;
  7993  1E9B  0850               	movf	read_ADC@data+3,w
  7994  1E9C  00CA               	movwf	?_read_ADC+3
  7995  1E9D  084F               	movf	read_ADC@data+2,w
  7996  1E9E  00C9               	movwf	?_read_ADC+2
  7997  1E9F  084E               	movf	read_ADC@data+1,w
  7998  1EA0  00C8               	movwf	?_read_ADC+1
  7999  1EA1  084D               	movf	read_ADC@data,w
  8000  1EA2  00C7               	movwf	?_read_ADC
  8001  1EA3                     l69:	
  8002  1EA3  0008               	return
  8003  1EA4                     __end_of_read_ADC:	
  8004                           
  8005                           	psect	text21
  8006  1F46                     __ptext21:	
  8007 ;; *************** function ___xxtofl *****************
  8008 ;; Defined at:
  8009 ;;		line 10 in file "C:\Program Files (x86)\Microchip\xc8\v2.10\pic\sources\c90\common\xxtofl.c"
  8010 ;; Parameters:    Size  Location     Type
  8011 ;;  sign            1    wreg     unsigned char 
  8012 ;;  val             4    0[COMMON] long 
  8013 ;; Auto vars:     Size  Location     Type
  8014 ;;  sign            1    8[COMMON] unsigned char 
  8015 ;;  arg             4   10[COMMON] unsigned long 
  8016 ;;  exp             1    9[COMMON] unsigned char 
  8017 ;; Return value:  Size  Location     Type
  8018 ;;                  4    0[COMMON] unsigned char 
  8019 ;; Registers used:
  8020 ;;		wreg, status,2, status,0
  8021 ;; Tracked objects:
  8022 ;;		On entry : 0/0
  8023 ;;		On exit  : 0/0
  8024 ;;		Unchanged: 0/0
  8025 ;; Data sizes:     COMMON   BANK0   BANK1   BANK3   BANK2
  8026 ;;      Params:         4       0       0       0       0
  8027 ;;      Locals:         6       0       0       0       0
  8028 ;;      Temps:          4       0       0       0       0
  8029 ;;      Totals:        14       0       0       0       0
  8030 ;;Total ram usage:       14 bytes
  8031 ;; Hardware stack levels used:    1
  8032 ;; This function calls:
  8033 ;;		Nothing
  8034 ;; This function is called by:
  8035 ;;		_read_ADC
  8036 ;;		_sprintf
  8037 ;; This function uses a non-reentrant model
  8038 ;;
  8039                           
  8040                           
  8041                           ;psect for function ___xxtofl
  8042  1F46                     ___xxtofl:	
  8043                           
  8044                           ;incstack = 0
  8045                           ; Regs used in ___xxtofl: [wreg+status,2+status,0]
  8046                           ;___xxtofl@sign stored from wreg
  8047  1F46  00F8               	movwf	___xxtofl@sign
  8048  1F47                     l3211:	
  8049  1F47  0878               	movf	___xxtofl@sign,w
  8050  1F48  1903               	btfsc	3,2
  8051  1F49  2F4B               	goto	u5491
  8052  1F4A  2F4C               	goto	u5490
  8053  1F4B                     u5491:	
  8054  1F4B  2F60               	goto	l3217
  8055  1F4C                     u5490:	
  8056  1F4C                     l3213:	
  8057  1F4C  1FF3               	btfss	___xxtofl@val+3,7
  8058  1F4D  2F4F               	goto	u5501
  8059  1F4E  2F50               	goto	u5500
  8060  1F4F                     u5501:	
  8061  1F4F  2F60               	goto	l3217
  8062  1F50                     u5500:	
  8063  1F50                     l3215:	
  8064  1F50  0970               	comf	___xxtofl@val,w
  8065  1F51  00FA               	movwf	___xxtofl@arg
  8066  1F52  0971               	comf	___xxtofl@val+1,w
  8067  1F53  00FB               	movwf	___xxtofl@arg+1
  8068  1F54  0972               	comf	___xxtofl@val+2,w
  8069  1F55  00FC               	movwf	___xxtofl@arg+2
  8070  1F56  0973               	comf	___xxtofl@val+3,w
  8071  1F57  00FD               	movwf	___xxtofl@arg+3
  8072  1F58  0AFA               	incf	___xxtofl@arg,f
  8073  1F59  1903               	skipnz
  8074  1F5A  0AFB               	incf	___xxtofl@arg+1,f
  8075  1F5B  1903               	skipnz
  8076  1F5C  0AFC               	incf	___xxtofl@arg+2,f
  8077  1F5D  1903               	skipnz
  8078  1F5E  0AFD               	incf	___xxtofl@arg+3,f
  8079  1F5F  2F68               	goto	l779
  8080  1F60                     l3217:	
  8081  1F60  0873               	movf	___xxtofl@val+3,w
  8082  1F61  00FD               	movwf	___xxtofl@arg+3
  8083  1F62  0872               	movf	___xxtofl@val+2,w
  8084  1F63  00FC               	movwf	___xxtofl@arg+2
  8085  1F64  0871               	movf	___xxtofl@val+1,w
  8086  1F65  00FB               	movwf	___xxtofl@arg+1
  8087  1F66  0870               	movf	___xxtofl@val,w
  8088  1F67  00FA               	movwf	___xxtofl@arg
  8089  1F68                     l779:	
  8090  1F68  0873               	movf	___xxtofl@val+3,w
  8091  1F69  0472               	iorwf	___xxtofl@val+2,w
  8092  1F6A  0471               	iorwf	___xxtofl@val+1,w
  8093  1F6B  0470               	iorwf	___xxtofl@val,w
  8094  1F6C  1D03               	skipz
  8095  1F6D  2F6F               	goto	u5511
  8096  1F6E  2F70               	goto	u5510
  8097  1F6F                     u5511:	
  8098  1F6F  2F79               	goto	l3223
  8099  1F70                     u5510:	
  8100  1F70                     l3219:	
  8101  1F70  3000               	movlw	0
  8102  1F71  00F3               	movwf	?___xxtofl+3
  8103  1F72  3000               	movlw	0
  8104  1F73  00F2               	movwf	?___xxtofl+2
  8105  1F74  3000               	movlw	0
  8106  1F75  00F1               	movwf	?___xxtofl+1
  8107  1F76  3000               	movlw	0
  8108  1F77  00F0               	movwf	?___xxtofl
  8109  1F78  2FFF               	goto	l781
  8110  1F79                     l3223:	
  8111  1F79  3096               	movlw	150
  8112  1F7A  00F4               	movwf	??___xxtofl
  8113  1F7B  0874               	movf	??___xxtofl,w
  8114  1F7C  00F9               	movwf	___xxtofl@exp
  8115  1F7D  2F8B               	goto	l3227
  8116  1F7E                     l3225:	
  8117  1F7E  3001               	movlw	1
  8118  1F7F  00F4               	movwf	??___xxtofl
  8119  1F80  0874               	movf	??___xxtofl,w
  8120  1F81  07F9               	addwf	___xxtofl@exp,f
  8121  1F82  3001               	movlw	1
  8122  1F83                     u5525:	
  8123  1F83  1003               	clrc
  8124  1F84  0CFD               	rrf	___xxtofl@arg+3,f
  8125  1F85  0CFC               	rrf	___xxtofl@arg+2,f
  8126  1F86  0CFB               	rrf	___xxtofl@arg+1,f
  8127  1F87  0CFA               	rrf	___xxtofl@arg,f
  8128  1F88  3EFF               	addlw	-1
  8129  1F89  1D03               	skipz
  8130  1F8A  2F83               	goto	u5525
  8131  1F8B                     l3227:	
  8132  1F8B  30FE               	movlw	254
  8133  1F8C  057D               	andwf	___xxtofl@arg+3,w
  8134  1F8D  1D03               	btfss	3,2
  8135  1F8E  2F90               	goto	u5531
  8136  1F8F  2F91               	goto	u5530
  8137  1F90                     u5531:	
  8138  1F90  2F7E               	goto	l3225
  8139  1F91                     u5530:	
  8140  1F91  2FAD               	goto	l785
  8141  1F92                     l3229:	
  8142  1F92  3001               	movlw	1
  8143  1F93  00F4               	movwf	??___xxtofl
  8144  1F94  0874               	movf	??___xxtofl,w
  8145  1F95  07F9               	addwf	___xxtofl@exp,f
  8146  1F96                     l3231:	
  8147  1F96  3001               	movlw	1
  8148  1F97  07FA               	addwf	___xxtofl@arg,f
  8149  1F98  3000               	movlw	0
  8150  1F99  1803               	skipnc
  8151  1F9A  3001               	movlw	1
  8152  1F9B  07FB               	addwf	___xxtofl@arg+1,f
  8153  1F9C  3000               	movlw	0
  8154  1F9D  1803               	skipnc
  8155  1F9E  3001               	movlw	1
  8156  1F9F  07FC               	addwf	___xxtofl@arg+2,f
  8157  1FA0  3000               	movlw	0
  8158  1FA1  1803               	skipnc
  8159  1FA2  3001               	movlw	1
  8160  1FA3  07FD               	addwf	___xxtofl@arg+3,f
  8161  1FA4                     l3233:	
  8162  1FA4  3001               	movlw	1
  8163  1FA5                     u5545:	
  8164  1FA5  1003               	clrc
  8165  1FA6  0CFD               	rrf	___xxtofl@arg+3,f
  8166  1FA7  0CFC               	rrf	___xxtofl@arg+2,f
  8167  1FA8  0CFB               	rrf	___xxtofl@arg+1,f
  8168  1FA9  0CFA               	rrf	___xxtofl@arg,f
  8169  1FAA  3EFF               	addlw	-1
  8170  1FAB  1D03               	skipz
  8171  1FAC  2FA5               	goto	u5545
  8172  1FAD                     l785:	
  8173  1FAD  30FF               	movlw	255
  8174  1FAE  057D               	andwf	___xxtofl@arg+3,w
  8175  1FAF  1D03               	btfss	3,2
  8176  1FB0  2FB2               	goto	u5551
  8177  1FB1  2FB3               	goto	u5550
  8178  1FB2                     u5551:	
  8179  1FB2  2F92               	goto	l3229
  8180  1FB3                     u5550:	
  8181  1FB3  2FBF               	goto	l3237
  8182  1FB4                     l3235:	
  8183  1FB4  3001               	movlw	1
  8184  1FB5  02F9               	subwf	___xxtofl@exp,f
  8185  1FB6  3001               	movlw	1
  8186  1FB7  00F4               	movwf	??___xxtofl
  8187  1FB8                     u5565:	
  8188  1FB8  1003               	clrc
  8189  1FB9  0DFA               	rlf	___xxtofl@arg,f
  8190  1FBA  0DFB               	rlf	___xxtofl@arg+1,f
  8191  1FBB  0DFC               	rlf	___xxtofl@arg+2,f
  8192  1FBC  0DFD               	rlf	___xxtofl@arg+3,f
  8193  1FBD  0BF4               	decfsz	??___xxtofl,f
  8194  1FBE  2FB8               	goto	u5565
  8195  1FBF                     l3237:	
  8196  1FBF  1BFC               	btfsc	___xxtofl@arg+2,7
  8197  1FC0  2FC2               	goto	u5571
  8198  1FC1  2FC3               	goto	u5570
  8199  1FC2                     u5571:	
  8200  1FC2  2FC9               	goto	l792
  8201  1FC3                     u5570:	
  8202  1FC3                     l3239:	
  8203  1FC3  3002               	movlw	2
  8204  1FC4  0279               	subwf	___xxtofl@exp,w
  8205  1FC5  1803               	skipnc
  8206  1FC6  2FC8               	goto	u5581
  8207  1FC7  2FC9               	goto	u5580
  8208  1FC8                     u5581:	
  8209  1FC8  2FB4               	goto	l3235
  8210  1FC9                     u5580:	
  8211  1FC9                     l792:	
  8212  1FC9  1879               	btfsc	___xxtofl@exp,0
  8213  1FCA  2FCC               	goto	u5591
  8214  1FCB  2FCD               	goto	u5590
  8215  1FCC                     u5591:	
  8216  1FCC  2FD5               	goto	l793
  8217  1FCD                     u5590:	
  8218  1FCD                     l3241:	
  8219  1FCD  30FF               	movlw	255
  8220  1FCE  05FA               	andwf	___xxtofl@arg,f
  8221  1FCF  30FF               	movlw	255
  8222  1FD0  05FB               	andwf	___xxtofl@arg+1,f
  8223  1FD1  307F               	movlw	127
  8224  1FD2  05FC               	andwf	___xxtofl@arg+2,f
  8225  1FD3  30FF               	movlw	255
  8226  1FD4  05FD               	andwf	___xxtofl@arg+3,f
  8227  1FD5                     l793:	
  8228  1FD5  1003               	clrc
  8229  1FD6  0CF9               	rrf	___xxtofl@exp,f
  8230  1FD7                     l3243:	
  8231  1FD7  0879               	movf	___xxtofl@exp,w
  8232  1FD8  00F4               	movwf	??___xxtofl
  8233  1FD9  01F5               	clrf	??___xxtofl+1
  8234  1FDA  01F6               	clrf	??___xxtofl+2
  8235  1FDB  01F7               	clrf	??___xxtofl+3
  8236  1FDC  3018               	movlw	24
  8237  1FDD                     u5605:	
  8238  1FDD  1003               	clrc
  8239  1FDE  0DF4               	rlf	??___xxtofl,f
  8240  1FDF  0DF5               	rlf	??___xxtofl+1,f
  8241  1FE0  0DF6               	rlf	??___xxtofl+2,f
  8242  1FE1  0DF7               	rlf	??___xxtofl+3,f
  8243  1FE2                     u5600:	
  8244  1FE2  3EFF               	addlw	-1
  8245  1FE3  1D03               	skipz
  8246  1FE4  2FDD               	goto	u5605
  8247  1FE5  0874               	movf	??___xxtofl,w
  8248  1FE6  04FA               	iorwf	___xxtofl@arg,f
  8249  1FE7  0875               	movf	??___xxtofl+1,w
  8250  1FE8  04FB               	iorwf	___xxtofl@arg+1,f
  8251  1FE9  0876               	movf	??___xxtofl+2,w
  8252  1FEA  04FC               	iorwf	___xxtofl@arg+2,f
  8253  1FEB  0877               	movf	??___xxtofl+3,w
  8254  1FEC  04FD               	iorwf	___xxtofl@arg+3,f
  8255  1FED                     l3245:	
  8256  1FED  0878               	movf	___xxtofl@sign,w
  8257  1FEE  1903               	btfsc	3,2
  8258  1FEF  2FF1               	goto	u5611
  8259  1FF0  2FF2               	goto	u5610
  8260  1FF1                     u5611:	
  8261  1FF1  2FF7               	goto	l3251
  8262  1FF2                     u5610:	
  8263  1FF2                     l3247:	
  8264  1FF2  1FF3               	btfss	___xxtofl@val+3,7
  8265  1FF3  2FF5               	goto	u5621
  8266  1FF4  2FF6               	goto	u5620
  8267  1FF5                     u5621:	
  8268  1FF5  2FF7               	goto	l3251
  8269  1FF6                     u5620:	
  8270  1FF6                     l3249:	
  8271  1FF6  17FD               	bsf	___xxtofl@arg+3,7
  8272  1FF7                     l3251:	
  8273  1FF7  087D               	movf	___xxtofl@arg+3,w
  8274  1FF8  00F3               	movwf	?___xxtofl+3
  8275  1FF9  087C               	movf	___xxtofl@arg+2,w
  8276  1FFA  00F2               	movwf	?___xxtofl+2
  8277  1FFB  087B               	movf	___xxtofl@arg+1,w
  8278  1FFC  00F1               	movwf	?___xxtofl+1
  8279  1FFD  087A               	movf	___xxtofl@arg,w
  8280  1FFE  00F0               	movwf	?___xxtofl
  8281  1FFF                     l781:	
  8282  1FFF  0008               	return
  8283  2000                     __end_of___xxtofl:	
  8284                           
  8285                           	psect	text22
  8286  0C9F                     __ptext22:	
  8287 ;; *************** function ___flmul *****************
  8288 ;; Defined at:
  8289 ;;		line 8 in file "C:\Program Files (x86)\Microchip\xc8\v2.10\pic\sources\c90\common\sprcmul.c"
  8290 ;; Parameters:    Size  Location     Type
  8291 ;;  b               4   13[BANK0 ] unsigned char 
  8292 ;;  a               4   17[BANK0 ] unsigned char 
  8293 ;; Auto vars:     Size  Location     Type
  8294 ;;  prod            4   33[BANK0 ] struct .
  8295 ;;  grs             4   27[BANK0 ] unsigned long 
  8296 ;;  temp            2   37[BANK0 ] struct .
  8297 ;;  bexp            1   32[BANK0 ] unsigned char 
  8298 ;;  aexp            1   31[BANK0 ] unsigned char 
  8299 ;;  sign            1   26[BANK0 ] unsigned char 
  8300 ;; Return value:  Size  Location     Type
  8301 ;;                  4   13[BANK0 ] unsigned char 
  8302 ;; Registers used:
  8303 ;;		wreg, status,2, status,0, btemp+1, pclath, cstack
  8304 ;; Tracked objects:
  8305 ;;		On entry : 0/0
  8306 ;;		On exit  : 0/0
  8307 ;;		Unchanged: 0/0
  8308 ;; Data sizes:     COMMON   BANK0   BANK1   BANK3   BANK2
  8309 ;;      Params:         0       8       0       0       0
  8310 ;;      Locals:         0      13       0       0       0
  8311 ;;      Temps:          0       5       0       0       0
  8312 ;;      Totals:         0      26       0       0       0
  8313 ;;Total ram usage:       26 bytes
  8314 ;; Hardware stack levels used:    1
  8315 ;; Hardware stack levels required when called:    1
  8316 ;; This function calls:
  8317 ;;		__Umul8_16
  8318 ;; This function is called by:
  8319 ;;		_read_ADC
  8320 ;;		_fround
  8321 ;;		_scale
  8322 ;;		_sprintf
  8323 ;; This function uses a non-reentrant model
  8324 ;;
  8325                           
  8326                           
  8327                           ;psect for function ___flmul
  8328  0C9F                     ___flmul:	
  8329  0C9F                     l2611:	
  8330                           ;incstack = 0
  8331                           ; Regs used in ___flmul: [wreg+status,2+status,0+btemp+1+pclath+cstack]
  8332                           
  8333  0C9F  1283               	bcf	3,5	;RP0=0, select bank0
  8334  0CA0  1303               	bcf	3,6	;RP1=0, select bank0
  8335  0CA1  0830               	movf	___flmul@b+3,w
  8336  0CA2  3980               	andlw	128
  8337  0CA3  00B5               	movwf	??___flmul
  8338  0CA4  0835               	movf	??___flmul,w
  8339  0CA5  00BA               	movwf	___flmul@sign
  8340  0CA6                     l2613:	
  8341  0CA6  0830               	movf	___flmul@b+3,w
  8342  0CA7  00B5               	movwf	??___flmul
  8343  0CA8  0735               	addwf	??___flmul,w
  8344  0CA9  00B6               	movwf	??___flmul+1
  8345  0CAA  0836               	movf	??___flmul+1,w
  8346  0CAB  00C0               	movwf	___flmul@bexp
  8347  0CAC                     l2615:	
  8348  0CAC  1FAF               	btfss	___flmul@b+2,7
  8349  0CAD  2CAF               	goto	u3891
  8350  0CAE  2CB0               	goto	u3890
  8351  0CAF                     u3891:	
  8352  0CAF  2CB1               	goto	l2619
  8353  0CB0                     u3890:	
  8354  0CB0                     l2617:	
  8355  0CB0  1440               	bsf	___flmul@bexp,0
  8356  0CB1                     l2619:	
  8357  0CB1  0840               	movf	___flmul@bexp,w
  8358  0CB2  1903               	btfsc	3,2
  8359  0CB3  2CB5               	goto	u3901
  8360  0CB4  2CB6               	goto	u3900
  8361  0CB5                     u3901:	
  8362  0CB5  2CC5               	goto	l2627
  8363  0CB6                     u3900:	
  8364  0CB6                     l2621:	
  8365  0CB6  0A40               	incf	___flmul@bexp,w
  8366  0CB7  1D03               	btfss	3,2
  8367  0CB8  2CBA               	goto	u3911
  8368  0CB9  2CBB               	goto	u3910
  8369  0CBA                     u3911:	
  8370  0CBA  2CC3               	goto	l2625
  8371  0CBB                     u3910:	
  8372  0CBB                     l2623:	
  8373  0CBB  3000               	movlw	0
  8374  0CBC  00B0               	movwf	___flmul@b+3
  8375  0CBD  3000               	movlw	0
  8376  0CBE  00AF               	movwf	___flmul@b+2
  8377  0CBF  3000               	movlw	0
  8378  0CC0  00AE               	movwf	___flmul@b+1
  8379  0CC1  3000               	movlw	0
  8380  0CC2  00AD               	movwf	___flmul@b
  8381  0CC3                     l2625:	
  8382  0CC3  17AF               	bsf	___flmul@b+2,7
  8383  0CC4  2CCD               	goto	l2629
  8384  0CC5                     l2627:	
  8385  0CC5  3000               	movlw	0
  8386  0CC6  00B0               	movwf	___flmul@b+3
  8387  0CC7  3000               	movlw	0
  8388  0CC8  00AF               	movwf	___flmul@b+2
  8389  0CC9  3000               	movlw	0
  8390  0CCA  00AE               	movwf	___flmul@b+1
  8391  0CCB  3000               	movlw	0
  8392  0CCC  00AD               	movwf	___flmul@b
  8393  0CCD                     l2629:	
  8394  0CCD  0834               	movf	___flmul@a+3,w
  8395  0CCE  3980               	andlw	128
  8396  0CCF  00B5               	movwf	??___flmul
  8397  0CD0  0835               	movf	??___flmul,w
  8398  0CD1  06BA               	xorwf	___flmul@sign,f
  8399  0CD2                     l2631:	
  8400  0CD2  0834               	movf	___flmul@a+3,w
  8401  0CD3  00B5               	movwf	??___flmul
  8402  0CD4  0735               	addwf	??___flmul,w
  8403  0CD5  00B6               	movwf	??___flmul+1
  8404  0CD6  0836               	movf	??___flmul+1,w
  8405  0CD7  00BF               	movwf	___flmul@aexp
  8406  0CD8                     l2633:	
  8407  0CD8  1FB3               	btfss	___flmul@a+2,7
  8408  0CD9  2CDB               	goto	u3921
  8409  0CDA  2CDC               	goto	u3920
  8410  0CDB                     u3921:	
  8411  0CDB  2CDD               	goto	l2637
  8412  0CDC                     u3920:	
  8413  0CDC                     l2635:	
  8414  0CDC  143F               	bsf	___flmul@aexp,0
  8415  0CDD                     l2637:	
  8416  0CDD  083F               	movf	___flmul@aexp,w
  8417  0CDE  1903               	btfsc	3,2
  8418  0CDF  2CE1               	goto	u3931
  8419  0CE0  2CE2               	goto	u3930
  8420  0CE1                     u3931:	
  8421  0CE1  2CF1               	goto	l2645
  8422  0CE2                     u3930:	
  8423  0CE2                     l2639:	
  8424  0CE2  0A3F               	incf	___flmul@aexp,w
  8425  0CE3  1D03               	btfss	3,2
  8426  0CE4  2CE6               	goto	u3941
  8427  0CE5  2CE7               	goto	u3940
  8428  0CE6                     u3941:	
  8429  0CE6  2CEF               	goto	l2643
  8430  0CE7                     u3940:	
  8431  0CE7                     l2641:	
  8432  0CE7  3000               	movlw	0
  8433  0CE8  00B4               	movwf	___flmul@a+3
  8434  0CE9  3000               	movlw	0
  8435  0CEA  00B3               	movwf	___flmul@a+2
  8436  0CEB  3000               	movlw	0
  8437  0CEC  00B2               	movwf	___flmul@a+1
  8438  0CED  3000               	movlw	0
  8439  0CEE  00B1               	movwf	___flmul@a
  8440  0CEF                     l2643:	
  8441  0CEF  17B3               	bsf	___flmul@a+2,7
  8442  0CF0  2CF9               	goto	l2647
  8443  0CF1                     l2645:	
  8444  0CF1  3000               	movlw	0
  8445  0CF2  00B4               	movwf	___flmul@a+3
  8446  0CF3  3000               	movlw	0
  8447  0CF4  00B3               	movwf	___flmul@a+2
  8448  0CF5  3000               	movlw	0
  8449  0CF6  00B2               	movwf	___flmul@a+1
  8450  0CF7  3000               	movlw	0
  8451  0CF8  00B1               	movwf	___flmul@a
  8452  0CF9                     l2647:	
  8453  0CF9  083F               	movf	___flmul@aexp,w
  8454  0CFA  1903               	btfsc	3,2
  8455  0CFB  2CFD               	goto	u3951
  8456  0CFC  2CFE               	goto	u3950
  8457  0CFD                     u3951:	
  8458  0CFD  2D03               	goto	l2651
  8459  0CFE                     u3950:	
  8460  0CFE                     l2649:	
  8461  0CFE  0840               	movf	___flmul@bexp,w
  8462  0CFF  1D03               	btfss	3,2
  8463  0D00  2D02               	goto	u3961
  8464  0D01  2D03               	goto	u3960
  8465  0D02                     u3961:	
  8466  0D02  2D0C               	goto	l2655
  8467  0D03                     u3960:	
  8468  0D03                     l2651:	
  8469  0D03  3000               	movlw	0
  8470  0D04  00B0               	movwf	?___flmul+3
  8471  0D05  3000               	movlw	0
  8472  0D06  00AF               	movwf	?___flmul+2
  8473  0D07  3000               	movlw	0
  8474  0D08  00AE               	movwf	?___flmul+1
  8475  0D09  3000               	movlw	0
  8476  0D0A  00AD               	movwf	?___flmul
  8477  0D0B  2FFF               	goto	l741
  8478  0D0C                     l2655:	
  8479  0D0C  082D               	movf	___flmul@b,w
  8480  0D0D  00B5               	movwf	??___flmul
  8481  0D0E  0835               	movf	??___flmul,w
  8482  0D0F  00F0               	movwf	__Umul8_16@multiplicand
  8483  0D10  0833               	movf	___flmul@a+2,w
  8484  0D11  160A  158A  23E6  120A  158A  	fcall	__Umul8_16
  8485  0D16  0871               	movf	?__Umul8_16+1,w
  8486  0D17  1283               	bcf	3,5	;RP0=0, select bank0
  8487  0D18  1303               	bcf	3,6	;RP1=0, select bank0
  8488  0D19  00C6               	movwf	___flmul@temp+1
  8489  0D1A  0870               	movf	?__Umul8_16,w
  8490  0D1B  00C5               	movwf	___flmul@temp
  8491  0D1C                     l2657:	
  8492  0D1C  0845               	movf	___flmul@temp,w
  8493  0D1D  00B5               	movwf	??___flmul
  8494  0D1E  01B6               	clrf	??___flmul+1
  8495  0D1F  01B7               	clrf	??___flmul+2
  8496  0D20  01B8               	clrf	??___flmul+3
  8497  0D21  0838               	movf	??___flmul+3,w
  8498  0D22  00BE               	movwf	___flmul@grs+3
  8499  0D23  0837               	movf	??___flmul+2,w
  8500  0D24  00BD               	movwf	___flmul@grs+2
  8501  0D25  0836               	movf	??___flmul+1,w
  8502  0D26  00BC               	movwf	___flmul@grs+1
  8503  0D27  0835               	movf	??___flmul,w
  8504  0D28  00BB               	movwf	___flmul@grs
  8505  0D29                     l2659:	
  8506  0D29  0846               	movf	___flmul@temp+1,w
  8507  0D2A  00B5               	movwf	??___flmul
  8508  0D2B  01B6               	clrf	??___flmul+1
  8509  0D2C  01B7               	clrf	??___flmul+2
  8510  0D2D  01B8               	clrf	??___flmul+3
  8511  0D2E  0838               	movf	??___flmul+3,w
  8512  0D2F  00C4               	movwf	___flmul@prod+3
  8513  0D30  0837               	movf	??___flmul+2,w
  8514  0D31  00C3               	movwf	___flmul@prod+2
  8515  0D32  0836               	movf	??___flmul+1,w
  8516  0D33  00C2               	movwf	___flmul@prod+1
  8517  0D34  0835               	movf	??___flmul,w
  8518  0D35  00C1               	movwf	___flmul@prod
  8519  0D36  082E               	movf	___flmul@b+1,w
  8520  0D37  00B5               	movwf	??___flmul
  8521  0D38  0835               	movf	??___flmul,w
  8522  0D39  00F0               	movwf	__Umul8_16@multiplicand
  8523  0D3A  0832               	movf	___flmul@a+1,w
  8524  0D3B  160A  158A  23E6  120A  158A  	fcall	__Umul8_16
  8525  0D40  0871               	movf	?__Umul8_16+1,w
  8526  0D41  1283               	bcf	3,5	;RP0=0, select bank0
  8527  0D42  1303               	bcf	3,6	;RP1=0, select bank0
  8528  0D43  00C6               	movwf	___flmul@temp+1
  8529  0D44  0870               	movf	?__Umul8_16,w
  8530  0D45  00C5               	movwf	___flmul@temp
  8531  0D46                     l2661:	
  8532  0D46  0845               	movf	___flmul@temp,w
  8533  0D47  00B5               	movwf	??___flmul
  8534  0D48  01B6               	clrf	??___flmul+1
  8535  0D49  01B7               	clrf	??___flmul+2
  8536  0D4A  01B8               	clrf	??___flmul+3
  8537  0D4B  0835               	movf	??___flmul,w
  8538  0D4C  07BB               	addwf	___flmul@grs,f
  8539  0D4D  0836               	movf	??___flmul+1,w
  8540  0D4E  1103               	clrz
  8541  0D4F  1803               	skipnc
  8542  0D50  3E01               	addlw	1
  8543  0D51  1903               	skipnz
  8544  0D52  2D54               	goto	u3971
  8545  0D53  07BC               	addwf	___flmul@grs+1,f
  8546  0D54                     u3971:	
  8547  0D54  0837               	movf	??___flmul+2,w
  8548  0D55  1103               	clrz
  8549  0D56  1803               	skipnc
  8550  0D57  3E01               	addlw	1
  8551  0D58  1903               	skipnz
  8552  0D59  2D5B               	goto	u3972
  8553  0D5A  07BD               	addwf	___flmul@grs+2,f
  8554  0D5B                     u3972:	
  8555  0D5B  0838               	movf	??___flmul+3,w
  8556  0D5C  1103               	clrz
  8557  0D5D  1803               	skipnc
  8558  0D5E  3E01               	addlw	1
  8559  0D5F  1903               	skipnz
  8560  0D60  2D62               	goto	u3973
  8561  0D61  07BE               	addwf	___flmul@grs+3,f
  8562  0D62                     u3973:	
  8563  0D62                     l2663:	
  8564  0D62  0846               	movf	___flmul@temp+1,w
  8565  0D63  00B5               	movwf	??___flmul
  8566  0D64  01B6               	clrf	??___flmul+1
  8567  0D65  01B7               	clrf	??___flmul+2
  8568  0D66  01B8               	clrf	??___flmul+3
  8569  0D67  0835               	movf	??___flmul,w
  8570  0D68  07C1               	addwf	___flmul@prod,f
  8571  0D69  0836               	movf	??___flmul+1,w
  8572  0D6A  1103               	clrz
  8573  0D6B  1803               	skipnc
  8574  0D6C  3E01               	addlw	1
  8575  0D6D  1903               	skipnz
  8576  0D6E  2D70               	goto	u3981
  8577  0D6F  07C2               	addwf	___flmul@prod+1,f
  8578  0D70                     u3981:	
  8579  0D70  0837               	movf	??___flmul+2,w
  8580  0D71  1103               	clrz
  8581  0D72  1803               	skipnc
  8582  0D73  3E01               	addlw	1
  8583  0D74  1903               	skipnz
  8584  0D75  2D77               	goto	u3982
  8585  0D76  07C3               	addwf	___flmul@prod+2,f
  8586  0D77                     u3982:	
  8587  0D77  0838               	movf	??___flmul+3,w
  8588  0D78  1103               	clrz
  8589  0D79  1803               	skipnc
  8590  0D7A  3E01               	addlw	1
  8591  0D7B  1903               	skipnz
  8592  0D7C  2D7E               	goto	u3983
  8593  0D7D  07C4               	addwf	___flmul@prod+3,f
  8594  0D7E                     u3983:	
  8595  0D7E  082F               	movf	___flmul@b+2,w
  8596  0D7F  00B5               	movwf	??___flmul
  8597  0D80  0835               	movf	??___flmul,w
  8598  0D81  00F0               	movwf	__Umul8_16@multiplicand
  8599  0D82  0831               	movf	___flmul@a,w
  8600  0D83  160A  158A  23E6  120A  158A  	fcall	__Umul8_16
  8601  0D88  0871               	movf	?__Umul8_16+1,w
  8602  0D89  1283               	bcf	3,5	;RP0=0, select bank0
  8603  0D8A  1303               	bcf	3,6	;RP1=0, select bank0
  8604  0D8B  00C6               	movwf	___flmul@temp+1
  8605  0D8C  0870               	movf	?__Umul8_16,w
  8606  0D8D  00C5               	movwf	___flmul@temp
  8607  0D8E                     l2665:	
  8608  0D8E  0845               	movf	___flmul@temp,w
  8609  0D8F  00B5               	movwf	??___flmul
  8610  0D90  01B6               	clrf	??___flmul+1
  8611  0D91  01B7               	clrf	??___flmul+2
  8612  0D92  01B8               	clrf	??___flmul+3
  8613  0D93  0835               	movf	??___flmul,w
  8614  0D94  07BB               	addwf	___flmul@grs,f
  8615  0D95  0836               	movf	??___flmul+1,w
  8616  0D96  1103               	clrz
  8617  0D97  1803               	skipnc
  8618  0D98  3E01               	addlw	1
  8619  0D99  1903               	skipnz
  8620  0D9A  2D9C               	goto	u3991
  8621  0D9B  07BC               	addwf	___flmul@grs+1,f
  8622  0D9C                     u3991:	
  8623  0D9C  0837               	movf	??___flmul+2,w
  8624  0D9D  1103               	clrz
  8625  0D9E  1803               	skipnc
  8626  0D9F  3E01               	addlw	1
  8627  0DA0  1903               	skipnz
  8628  0DA1  2DA3               	goto	u3992
  8629  0DA2  07BD               	addwf	___flmul@grs+2,f
  8630  0DA3                     u3992:	
  8631  0DA3  0838               	movf	??___flmul+3,w
  8632  0DA4  1103               	clrz
  8633  0DA5  1803               	skipnc
  8634  0DA6  3E01               	addlw	1
  8635  0DA7  1903               	skipnz
  8636  0DA8  2DAA               	goto	u3993
  8637  0DA9  07BE               	addwf	___flmul@grs+3,f
  8638  0DAA                     u3993:	
  8639  0DAA                     l2667:	
  8640  0DAA  0846               	movf	___flmul@temp+1,w
  8641  0DAB  00B5               	movwf	??___flmul
  8642  0DAC  01B6               	clrf	??___flmul+1
  8643  0DAD  01B7               	clrf	??___flmul+2
  8644  0DAE  01B8               	clrf	??___flmul+3
  8645  0DAF  0835               	movf	??___flmul,w
  8646  0DB0  07C1               	addwf	___flmul@prod,f
  8647  0DB1  0836               	movf	??___flmul+1,w
  8648  0DB2  1103               	clrz
  8649  0DB3  1803               	skipnc
  8650  0DB4  3E01               	addlw	1
  8651  0DB5  1903               	skipnz
  8652  0DB6  2DB8               	goto	u4001
  8653  0DB7  07C2               	addwf	___flmul@prod+1,f
  8654  0DB8                     u4001:	
  8655  0DB8  0837               	movf	??___flmul+2,w
  8656  0DB9  1103               	clrz
  8657  0DBA  1803               	skipnc
  8658  0DBB  3E01               	addlw	1
  8659  0DBC  1903               	skipnz
  8660  0DBD  2DBF               	goto	u4002
  8661  0DBE  07C3               	addwf	___flmul@prod+2,f
  8662  0DBF                     u4002:	
  8663  0DBF  0838               	movf	??___flmul+3,w
  8664  0DC0  1103               	clrz
  8665  0DC1  1803               	skipnc
  8666  0DC2  3E01               	addlw	1
  8667  0DC3  1903               	skipnz
  8668  0DC4  2DC6               	goto	u4003
  8669  0DC5  07C4               	addwf	___flmul@prod+3,f
  8670  0DC6                     u4003:	
  8671  0DC6                     l2669:	
  8672  0DC6  3008               	movlw	8
  8673  0DC7  00B5               	movwf	??___flmul
  8674  0DC8                     u4015:	
  8675  0DC8  1003               	clrc
  8676  0DC9  0DBB               	rlf	___flmul@grs,f
  8677  0DCA  0DBC               	rlf	___flmul@grs+1,f
  8678  0DCB  0DBD               	rlf	___flmul@grs+2,f
  8679  0DCC  0DBE               	rlf	___flmul@grs+3,f
  8680  0DCD  0BB5               	decfsz	??___flmul,f
  8681  0DCE  2DC8               	goto	u4015
  8682  0DCF                     l2671:	
  8683  0DCF  082E               	movf	___flmul@b+1,w
  8684  0DD0  00B5               	movwf	??___flmul
  8685  0DD1  0835               	movf	??___flmul,w
  8686  0DD2  00F0               	movwf	__Umul8_16@multiplicand
  8687  0DD3  0831               	movf	___flmul@a,w
  8688  0DD4  160A  158A  23E6  120A  158A  	fcall	__Umul8_16
  8689  0DD9  0871               	movf	?__Umul8_16+1,w
  8690  0DDA  1283               	bcf	3,5	;RP0=0, select bank0
  8691  0DDB  1303               	bcf	3,6	;RP1=0, select bank0
  8692  0DDC  00C6               	movwf	___flmul@temp+1
  8693  0DDD  0870               	movf	?__Umul8_16,w
  8694  0DDE  00C5               	movwf	___flmul@temp
  8695  0DDF                     l2673:	
  8696  0DDF  0845               	movf	___flmul@temp,w
  8697  0DE0  00B5               	movwf	??___flmul
  8698  0DE1  0846               	movf	___flmul@temp+1,w
  8699  0DE2  00B6               	movwf	??___flmul+1
  8700  0DE3  01B7               	clrf	??___flmul+2
  8701  0DE4  01B8               	clrf	??___flmul+3
  8702  0DE5  0835               	movf	??___flmul,w
  8703  0DE6  07BB               	addwf	___flmul@grs,f
  8704  0DE7  0836               	movf	??___flmul+1,w
  8705  0DE8  1103               	clrz
  8706  0DE9  1803               	skipnc
  8707  0DEA  3E01               	addlw	1
  8708  0DEB  1903               	skipnz
  8709  0DEC  2DEE               	goto	u4021
  8710  0DED  07BC               	addwf	___flmul@grs+1,f
  8711  0DEE                     u4021:	
  8712  0DEE  0837               	movf	??___flmul+2,w
  8713  0DEF  1103               	clrz
  8714  0DF0  1803               	skipnc
  8715  0DF1  3E01               	addlw	1
  8716  0DF2  1903               	skipnz
  8717  0DF3  2DF5               	goto	u4022
  8718  0DF4  07BD               	addwf	___flmul@grs+2,f
  8719  0DF5                     u4022:	
  8720  0DF5  0838               	movf	??___flmul+3,w
  8721  0DF6  1103               	clrz
  8722  0DF7  1803               	skipnc
  8723  0DF8  3E01               	addlw	1
  8724  0DF9  1903               	skipnz
  8725  0DFA  2DFC               	goto	u4023
  8726  0DFB  07BE               	addwf	___flmul@grs+3,f
  8727  0DFC                     u4023:	
  8728  0DFC                     l2675:	
  8729  0DFC  082D               	movf	___flmul@b,w
  8730  0DFD  00B5               	movwf	??___flmul
  8731  0DFE  0835               	movf	??___flmul,w
  8732  0DFF  00F0               	movwf	__Umul8_16@multiplicand
  8733  0E00  0832               	movf	___flmul@a+1,w
  8734  0E01  160A  158A  23E6  120A  158A  	fcall	__Umul8_16
  8735  0E06  0871               	movf	?__Umul8_16+1,w
  8736  0E07  1283               	bcf	3,5	;RP0=0, select bank0
  8737  0E08  1303               	bcf	3,6	;RP1=0, select bank0
  8738  0E09  00C6               	movwf	___flmul@temp+1
  8739  0E0A  0870               	movf	?__Umul8_16,w
  8740  0E0B  00C5               	movwf	___flmul@temp
  8741  0E0C                     l2677:	
  8742  0E0C  0845               	movf	___flmul@temp,w
  8743  0E0D  00B5               	movwf	??___flmul
  8744  0E0E  0846               	movf	___flmul@temp+1,w
  8745  0E0F  00B6               	movwf	??___flmul+1
  8746  0E10  01B7               	clrf	??___flmul+2
  8747  0E11  01B8               	clrf	??___flmul+3
  8748  0E12  0835               	movf	??___flmul,w
  8749  0E13  07BB               	addwf	___flmul@grs,f
  8750  0E14  0836               	movf	??___flmul+1,w
  8751  0E15  1103               	clrz
  8752  0E16  1803               	skipnc
  8753  0E17  3E01               	addlw	1
  8754  0E18  1903               	skipnz
  8755  0E19  2E1B               	goto	u4031
  8756  0E1A  07BC               	addwf	___flmul@grs+1,f
  8757  0E1B                     u4031:	
  8758  0E1B  0837               	movf	??___flmul+2,w
  8759  0E1C  1103               	clrz
  8760  0E1D  1803               	skipnc
  8761  0E1E  3E01               	addlw	1
  8762  0E1F  1903               	skipnz
  8763  0E20  2E22               	goto	u4032
  8764  0E21  07BD               	addwf	___flmul@grs+2,f
  8765  0E22                     u4032:	
  8766  0E22  0838               	movf	??___flmul+3,w
  8767  0E23  1103               	clrz
  8768  0E24  1803               	skipnc
  8769  0E25  3E01               	addlw	1
  8770  0E26  1903               	skipnz
  8771  0E27  2E29               	goto	u4033
  8772  0E28  07BE               	addwf	___flmul@grs+3,f
  8773  0E29                     u4033:	
  8774  0E29                     l2679:	
  8775  0E29  3008               	movlw	8
  8776  0E2A  00B5               	movwf	??___flmul
  8777  0E2B                     u4045:	
  8778  0E2B  1003               	clrc
  8779  0E2C  0DBB               	rlf	___flmul@grs,f
  8780  0E2D  0DBC               	rlf	___flmul@grs+1,f
  8781  0E2E  0DBD               	rlf	___flmul@grs+2,f
  8782  0E2F  0DBE               	rlf	___flmul@grs+3,f
  8783  0E30  0BB5               	decfsz	??___flmul,f
  8784  0E31  2E2B               	goto	u4045
  8785  0E32  082D               	movf	___flmul@b,w
  8786  0E33  00B5               	movwf	??___flmul
  8787  0E34  0835               	movf	??___flmul,w
  8788  0E35  00F0               	movwf	__Umul8_16@multiplicand
  8789  0E36  0831               	movf	___flmul@a,w
  8790  0E37  160A  158A  23E6  120A  158A  	fcall	__Umul8_16
  8791  0E3C  0871               	movf	?__Umul8_16+1,w
  8792  0E3D  1283               	bcf	3,5	;RP0=0, select bank0
  8793  0E3E  1303               	bcf	3,6	;RP1=0, select bank0
  8794  0E3F  00C6               	movwf	___flmul@temp+1
  8795  0E40  0870               	movf	?__Umul8_16,w
  8796  0E41  00C5               	movwf	___flmul@temp
  8797  0E42                     l2681:	
  8798  0E42  0845               	movf	___flmul@temp,w
  8799  0E43  00B5               	movwf	??___flmul
  8800  0E44  0846               	movf	___flmul@temp+1,w
  8801  0E45  00B6               	movwf	??___flmul+1
  8802  0E46  01B7               	clrf	??___flmul+2
  8803  0E47  01B8               	clrf	??___flmul+3
  8804  0E48  0835               	movf	??___flmul,w
  8805  0E49  07BB               	addwf	___flmul@grs,f
  8806  0E4A  0836               	movf	??___flmul+1,w
  8807  0E4B  1103               	clrz
  8808  0E4C  1803               	skipnc
  8809  0E4D  3E01               	addlw	1
  8810  0E4E  1903               	skipnz
  8811  0E4F  2E51               	goto	u4051
  8812  0E50  07BC               	addwf	___flmul@grs+1,f
  8813  0E51                     u4051:	
  8814  0E51  0837               	movf	??___flmul+2,w
  8815  0E52  1103               	clrz
  8816  0E53  1803               	skipnc
  8817  0E54  3E01               	addlw	1
  8818  0E55  1903               	skipnz
  8819  0E56  2E58               	goto	u4052
  8820  0E57  07BD               	addwf	___flmul@grs+2,f
  8821  0E58                     u4052:	
  8822  0E58  0838               	movf	??___flmul+3,w
  8823  0E59  1103               	clrz
  8824  0E5A  1803               	skipnc
  8825  0E5B  3E01               	addlw	1
  8826  0E5C  1903               	skipnz
  8827  0E5D  2E5F               	goto	u4053
  8828  0E5E  07BE               	addwf	___flmul@grs+3,f
  8829  0E5F                     u4053:	
  8830  0E5F                     l2683:	
  8831  0E5F  082E               	movf	___flmul@b+1,w
  8832  0E60  00B5               	movwf	??___flmul
  8833  0E61  0835               	movf	??___flmul,w
  8834  0E62  00F0               	movwf	__Umul8_16@multiplicand
  8835  0E63  0833               	movf	___flmul@a+2,w
  8836  0E64  160A  158A  23E6  120A  158A  	fcall	__Umul8_16
  8837  0E69  0871               	movf	?__Umul8_16+1,w
  8838  0E6A  1283               	bcf	3,5	;RP0=0, select bank0
  8839  0E6B  1303               	bcf	3,6	;RP1=0, select bank0
  8840  0E6C  00C6               	movwf	___flmul@temp+1
  8841  0E6D  0870               	movf	?__Umul8_16,w
  8842  0E6E  00C5               	movwf	___flmul@temp
  8843  0E6F  0845               	movf	___flmul@temp,w
  8844  0E70  00B5               	movwf	??___flmul
  8845  0E71  0846               	movf	___flmul@temp+1,w
  8846  0E72  00B6               	movwf	??___flmul+1
  8847  0E73  01B7               	clrf	??___flmul+2
  8848  0E74  01B8               	clrf	??___flmul+3
  8849  0E75  0835               	movf	??___flmul,w
  8850  0E76  07C1               	addwf	___flmul@prod,f
  8851  0E77  0836               	movf	??___flmul+1,w
  8852  0E78  1103               	clrz
  8853  0E79  1803               	skipnc
  8854  0E7A  3E01               	addlw	1
  8855  0E7B  1903               	skipnz
  8856  0E7C  2E7E               	goto	u4061
  8857  0E7D  07C2               	addwf	___flmul@prod+1,f
  8858  0E7E                     u4061:	
  8859  0E7E  0837               	movf	??___flmul+2,w
  8860  0E7F  1103               	clrz
  8861  0E80  1803               	skipnc
  8862  0E81  3E01               	addlw	1
  8863  0E82  1903               	skipnz
  8864  0E83  2E85               	goto	u4062
  8865  0E84  07C3               	addwf	___flmul@prod+2,f
  8866  0E85                     u4062:	
  8867  0E85  0838               	movf	??___flmul+3,w
  8868  0E86  1103               	clrz
  8869  0E87  1803               	skipnc
  8870  0E88  3E01               	addlw	1
  8871  0E89  1903               	skipnz
  8872  0E8A  2E8C               	goto	u4063
  8873  0E8B  07C4               	addwf	___flmul@prod+3,f
  8874  0E8C                     u4063:	
  8875  0E8C                     l2685:	
  8876  0E8C  082F               	movf	___flmul@b+2,w
  8877  0E8D  00B5               	movwf	??___flmul
  8878  0E8E  0835               	movf	??___flmul,w
  8879  0E8F  00F0               	movwf	__Umul8_16@multiplicand
  8880  0E90  0832               	movf	___flmul@a+1,w
  8881  0E91  160A  158A  23E6  120A  158A  	fcall	__Umul8_16
  8882  0E96  0871               	movf	?__Umul8_16+1,w
  8883  0E97  1283               	bcf	3,5	;RP0=0, select bank0
  8884  0E98  1303               	bcf	3,6	;RP1=0, select bank0
  8885  0E99  00C6               	movwf	___flmul@temp+1
  8886  0E9A  0870               	movf	?__Umul8_16,w
  8887  0E9B  00C5               	movwf	___flmul@temp
  8888  0E9C                     l2687:	
  8889  0E9C  0845               	movf	___flmul@temp,w
  8890  0E9D  00B5               	movwf	??___flmul
  8891  0E9E  0846               	movf	___flmul@temp+1,w
  8892  0E9F  00B6               	movwf	??___flmul+1
  8893  0EA0  01B7               	clrf	??___flmul+2
  8894  0EA1  01B8               	clrf	??___flmul+3
  8895  0EA2  0835               	movf	??___flmul,w
  8896  0EA3  07C1               	addwf	___flmul@prod,f
  8897  0EA4  0836               	movf	??___flmul+1,w
  8898  0EA5  1103               	clrz
  8899  0EA6  1803               	skipnc
  8900  0EA7  3E01               	addlw	1
  8901  0EA8  1903               	skipnz
  8902  0EA9  2EAB               	goto	u4071
  8903  0EAA  07C2               	addwf	___flmul@prod+1,f
  8904  0EAB                     u4071:	
  8905  0EAB  0837               	movf	??___flmul+2,w
  8906  0EAC  1103               	clrz
  8907  0EAD  1803               	skipnc
  8908  0EAE  3E01               	addlw	1
  8909  0EAF  1903               	skipnz
  8910  0EB0  2EB2               	goto	u4072
  8911  0EB1  07C3               	addwf	___flmul@prod+2,f
  8912  0EB2                     u4072:	
  8913  0EB2  0838               	movf	??___flmul+3,w
  8914  0EB3  1103               	clrz
  8915  0EB4  1803               	skipnc
  8916  0EB5  3E01               	addlw	1
  8917  0EB6  1903               	skipnz
  8918  0EB7  2EB9               	goto	u4073
  8919  0EB8  07C4               	addwf	___flmul@prod+3,f
  8920  0EB9                     u4073:	
  8921  0EB9  082F               	movf	___flmul@b+2,w
  8922  0EBA  00B5               	movwf	??___flmul
  8923  0EBB  0835               	movf	??___flmul,w
  8924  0EBC  00F0               	movwf	__Umul8_16@multiplicand
  8925  0EBD  0833               	movf	___flmul@a+2,w
  8926  0EBE  160A  158A  23E6  120A  158A  	fcall	__Umul8_16
  8927  0EC3  0871               	movf	?__Umul8_16+1,w
  8928  0EC4  1283               	bcf	3,5	;RP0=0, select bank0
  8929  0EC5  1303               	bcf	3,6	;RP1=0, select bank0
  8930  0EC6  00C6               	movwf	___flmul@temp+1
  8931  0EC7  0870               	movf	?__Umul8_16,w
  8932  0EC8  00C5               	movwf	___flmul@temp
  8933  0EC9                     l2689:	
  8934  0EC9  0845               	movf	___flmul@temp,w
  8935  0ECA  00B5               	movwf	??___flmul
  8936  0ECB  0846               	movf	___flmul@temp+1,w
  8937  0ECC  00B6               	movwf	??___flmul+1
  8938  0ECD  01B7               	clrf	??___flmul+2
  8939  0ECE  01B8               	clrf	??___flmul+3
  8940  0ECF  3008               	movlw	8
  8941  0ED0                     u4085:	
  8942  0ED0  1003               	clrc
  8943  0ED1  0DB5               	rlf	??___flmul,f
  8944  0ED2  0DB6               	rlf	??___flmul+1,f
  8945  0ED3  0DB7               	rlf	??___flmul+2,f
  8946  0ED4  0DB8               	rlf	??___flmul+3,f
  8947  0ED5                     u4080:	
  8948  0ED5  3EFF               	addlw	-1
  8949  0ED6  1D03               	skipz
  8950  0ED7  2ED0               	goto	u4085
  8951  0ED8  0835               	movf	??___flmul,w
  8952  0ED9  07C1               	addwf	___flmul@prod,f
  8953  0EDA  0836               	movf	??___flmul+1,w
  8954  0EDB  1103               	clrz
  8955  0EDC  1803               	skipnc
  8956  0EDD  3E01               	addlw	1
  8957  0EDE  1903               	skipnz
  8958  0EDF  2EE1               	goto	u4091
  8959  0EE0  07C2               	addwf	___flmul@prod+1,f
  8960  0EE1                     u4091:	
  8961  0EE1  0837               	movf	??___flmul+2,w
  8962  0EE2  1103               	clrz
  8963  0EE3  1803               	skipnc
  8964  0EE4  3E01               	addlw	1
  8965  0EE5  1903               	skipnz
  8966  0EE6  2EE8               	goto	u4092
  8967  0EE7  07C3               	addwf	___flmul@prod+2,f
  8968  0EE8                     u4092:	
  8969  0EE8  0838               	movf	??___flmul+3,w
  8970  0EE9  1103               	clrz
  8971  0EEA  1803               	skipnc
  8972  0EEB  3E01               	addlw	1
  8973  0EEC  1903               	skipnz
  8974  0EED  2EEF               	goto	u4093
  8975  0EEE  07C4               	addwf	___flmul@prod+3,f
  8976  0EEF                     u4093:	
  8977  0EEF                     l2691:	
  8978  0EEF  083B               	movf	___flmul@grs,w
  8979  0EF0  00B5               	movwf	??___flmul
  8980  0EF1  083C               	movf	___flmul@grs+1,w
  8981  0EF2  00B6               	movwf	??___flmul+1
  8982  0EF3  083D               	movf	___flmul@grs+2,w
  8983  0EF4  00B7               	movwf	??___flmul+2
  8984  0EF5  083E               	movf	___flmul@grs+3,w
  8985  0EF6  00B8               	movwf	??___flmul+3
  8986  0EF7  3018               	movlw	24
  8987  0EF8                     u4105:	
  8988  0EF8  1003               	clrc
  8989  0EF9  0CB8               	rrf	??___flmul+3,f
  8990  0EFA  0CB7               	rrf	??___flmul+2,f
  8991  0EFB  0CB6               	rrf	??___flmul+1,f
  8992  0EFC  0CB5               	rrf	??___flmul,f
  8993  0EFD                     u4100:	
  8994  0EFD  3EFF               	addlw	-1
  8995  0EFE  1D03               	skipz
  8996  0EFF  2EF8               	goto	u4105
  8997  0F00  0835               	movf	??___flmul,w
  8998  0F01  07C1               	addwf	___flmul@prod,f
  8999  0F02  0836               	movf	??___flmul+1,w
  9000  0F03  1103               	clrz
  9001  0F04  1803               	skipnc
  9002  0F05  3E01               	addlw	1
  9003  0F06  1903               	skipnz
  9004  0F07  2F09               	goto	u4111
  9005  0F08  07C2               	addwf	___flmul@prod+1,f
  9006  0F09                     u4111:	
  9007  0F09  0837               	movf	??___flmul+2,w
  9008  0F0A  1103               	clrz
  9009  0F0B  1803               	skipnc
  9010  0F0C  3E01               	addlw	1
  9011  0F0D  1903               	skipnz
  9012  0F0E  2F10               	goto	u4112
  9013  0F0F  07C3               	addwf	___flmul@prod+2,f
  9014  0F10                     u4112:	
  9015  0F10  0838               	movf	??___flmul+3,w
  9016  0F11  1103               	clrz
  9017  0F12  1803               	skipnc
  9018  0F13  3E01               	addlw	1
  9019  0F14  1903               	skipnz
  9020  0F15  2F17               	goto	u4113
  9021  0F16  07C4               	addwf	___flmul@prod+3,f
  9022  0F17                     u4113:	
  9023  0F17                     l2693:	
  9024  0F17  3008               	movlw	8
  9025  0F18  00B5               	movwf	??___flmul
  9026  0F19                     u4125:	
  9027  0F19  1003               	clrc
  9028  0F1A  0DBB               	rlf	___flmul@grs,f
  9029  0F1B  0DBC               	rlf	___flmul@grs+1,f
  9030  0F1C  0DBD               	rlf	___flmul@grs+2,f
  9031  0F1D  0DBE               	rlf	___flmul@grs+3,f
  9032  0F1E  0BB5               	decfsz	??___flmul,f
  9033  0F1F  2F19               	goto	u4125
  9034  0F20                     l2695:	
  9035  0F20  0840               	movf	___flmul@bexp,w
  9036  0F21  073F               	addwf	___flmul@aexp,w
  9037  0F22  00B5               	movwf	??___flmul
  9038  0F23  01B6               	clrf	??___flmul+1
  9039  0F24  0DB6               	rlf	??___flmul+1,f
  9040  0F25  0835               	movf	??___flmul,w
  9041  0F26  3E82               	addlw	130
  9042  0F27  00C5               	movwf	___flmul@temp
  9043  0F28  0836               	movf	??___flmul+1,w
  9044  0F29  1803               	skipnc
  9045  0F2A  3E01               	addlw	1
  9046  0F2B  3EFF               	addlw	255
  9047  0F2C  00C6               	movwf	___flmul@temp+1
  9048  0F2D  2F4B               	goto	l2707
  9049  0F2E                     l2697:	
  9050  0F2E  3001               	movlw	1
  9051  0F2F  00B5               	movwf	??___flmul
  9052  0F30                     u4135:	
  9053  0F30  1003               	clrc
  9054  0F31  0DC1               	rlf	___flmul@prod,f
  9055  0F32  0DC2               	rlf	___flmul@prod+1,f
  9056  0F33  0DC3               	rlf	___flmul@prod+2,f
  9057  0F34  0DC4               	rlf	___flmul@prod+3,f
  9058  0F35  0BB5               	decfsz	??___flmul,f
  9059  0F36  2F30               	goto	u4135
  9060  0F37                     l2699:	
  9061  0F37  1FBE               	btfss	___flmul@grs+3,7
  9062  0F38  2F3A               	goto	u4141
  9063  0F39  2F3B               	goto	u4140
  9064  0F3A                     u4141:	
  9065  0F3A  2F3C               	goto	l2703
  9066  0F3B                     u4140:	
  9067  0F3B                     l2701:	
  9068  0F3B  1441               	bsf	___flmul@prod,0
  9069  0F3C                     l2703:	
  9070  0F3C  3001               	movlw	1
  9071  0F3D  00B5               	movwf	??___flmul
  9072  0F3E                     u4155:	
  9073  0F3E  1003               	clrc
  9074  0F3F  0DBB               	rlf	___flmul@grs,f
  9075  0F40  0DBC               	rlf	___flmul@grs+1,f
  9076  0F41  0DBD               	rlf	___flmul@grs+2,f
  9077  0F42  0DBE               	rlf	___flmul@grs+3,f
  9078  0F43  0BB5               	decfsz	??___flmul,f
  9079  0F44  2F3E               	goto	u4155
  9080  0F45                     l2705:	
  9081  0F45  30FF               	movlw	255
  9082  0F46  07C5               	addwf	___flmul@temp,f
  9083  0F47  1803               	skipnc
  9084  0F48  0AC6               	incf	___flmul@temp+1,f
  9085  0F49  30FF               	movlw	255
  9086  0F4A  07C6               	addwf	___flmul@temp+1,f
  9087  0F4B                     l2707:	
  9088  0F4B  1FC3               	btfss	___flmul@prod+2,7
  9089  0F4C  2F4E               	goto	u4161
  9090  0F4D  2F4F               	goto	u4160
  9091  0F4E                     u4161:	
  9092  0F4E  2F2E               	goto	l2697
  9093  0F4F                     u4160:	
  9094  0F4F                     l2709:	
  9095  0F4F  01BF               	clrf	___flmul@aexp
  9096  0F50                     l2711:	
  9097  0F50  1FBE               	btfss	___flmul@grs+3,7
  9098  0F51  2F53               	goto	u4171
  9099  0F52  2F54               	goto	u4170
  9100  0F53                     u4171:	
  9101  0F53  2F70               	goto	l2719
  9102  0F54                     u4170:	
  9103  0F54                     l2713:	
  9104  0F54  30FF               	movlw	255
  9105  0F55  053B               	andwf	___flmul@grs,w
  9106  0F56  00B5               	movwf	??___flmul
  9107  0F57  30FF               	movlw	255
  9108  0F58  053C               	andwf	___flmul@grs+1,w
  9109  0F59  00B6               	movwf	??___flmul+1
  9110  0F5A  30FF               	movlw	255
  9111  0F5B  053D               	andwf	___flmul@grs+2,w
  9112  0F5C  00B7               	movwf	??___flmul+2
  9113  0F5D  307F               	movlw	127
  9114  0F5E  053E               	andwf	___flmul@grs+3,w
  9115  0F5F  00B8               	movwf	??___flmul+3
  9116  0F60  0838               	movf	??___flmul+3,w
  9117  0F61  0437               	iorwf	??___flmul+2,w
  9118  0F62  0436               	iorwf	??___flmul+1,w
  9119  0F63  0435               	iorwf	??___flmul,w
  9120  0F64  1903               	skipnz
  9121  0F65  2F67               	goto	u4181
  9122  0F66  2F68               	goto	u4180
  9123  0F67                     u4181:	
  9124  0F67  2F6B               	goto	l747
  9125  0F68                     u4180:	
  9126  0F68                     l2715:	
  9127  0F68  01BF               	clrf	___flmul@aexp
  9128  0F69  0ABF               	incf	___flmul@aexp,f
  9129  0F6A  2F70               	goto	l2719
  9130  0F6B                     l747:	
  9131  0F6B  1C41               	btfss	___flmul@prod,0
  9132  0F6C  2F6E               	goto	u4191
  9133  0F6D  2F6F               	goto	u4190
  9134  0F6E                     u4191:	
  9135  0F6E  2F70               	goto	l2719
  9136  0F6F                     u4190:	
  9137  0F6F  2F68               	goto	l2715
  9138  0F70                     l2719:	
  9139  0F70  083F               	movf	___flmul@aexp,w
  9140  0F71  1903               	btfsc	3,2
  9141  0F72  2F74               	goto	u4201
  9142  0F73  2F75               	goto	u4200
  9143  0F74                     u4201:	
  9144  0F74  2FA6               	goto	l2729
  9145  0F75                     u4200:	
  9146  0F75                     l2721:	
  9147  0F75  3001               	movlw	1
  9148  0F76  07C1               	addwf	___flmul@prod,f
  9149  0F77  3000               	movlw	0
  9150  0F78  1803               	skipnc
  9151  0F79  3001               	movlw	1
  9152  0F7A  07C2               	addwf	___flmul@prod+1,f
  9153  0F7B  3000               	movlw	0
  9154  0F7C  1803               	skipnc
  9155  0F7D  3001               	movlw	1
  9156  0F7E  07C3               	addwf	___flmul@prod+2,f
  9157  0F7F  3000               	movlw	0
  9158  0F80  1803               	skipnc
  9159  0F81  3001               	movlw	1
  9160  0F82  07C4               	addwf	___flmul@prod+3,f
  9161  0F83                     l2723:	
  9162  0F83  1C44               	btfss	___flmul@prod+3,0
  9163  0F84  2F86               	goto	u4211
  9164  0F85  2F87               	goto	u4210
  9165  0F86                     u4211:	
  9166  0F86  2FA6               	goto	l2729
  9167  0F87                     u4210:	
  9168  0F87                     l2725:	
  9169  0F87  0841               	movf	___flmul@prod,w
  9170  0F88  00B5               	movwf	??___flmul
  9171  0F89  0842               	movf	___flmul@prod+1,w
  9172  0F8A  00B6               	movwf	??___flmul+1
  9173  0F8B  0843               	movf	___flmul@prod+2,w
  9174  0F8C  00B7               	movwf	??___flmul+2
  9175  0F8D  0844               	movf	___flmul@prod+3,w
  9176  0F8E  00B8               	movwf	??___flmul+3
  9177  0F8F  3001               	movlw	1
  9178  0F90  00B9               	movwf	??___flmul+4
  9179  0F91                     u4225:	
  9180  0F91  0D38               	rlf	??___flmul+3,w
  9181  0F92  0CB8               	rrf	??___flmul+3,f
  9182  0F93  0CB7               	rrf	??___flmul+2,f
  9183  0F94  0CB6               	rrf	??___flmul+1,f
  9184  0F95  0CB5               	rrf	??___flmul,f
  9185  0F96                     u4220:	
  9186  0F96  0BB9               	decfsz	??___flmul+4,f
  9187  0F97  2F91               	goto	u4225
  9188  0F98  0838               	movf	??___flmul+3,w
  9189  0F99  00C4               	movwf	___flmul@prod+3
  9190  0F9A  0837               	movf	??___flmul+2,w
  9191  0F9B  00C3               	movwf	___flmul@prod+2
  9192  0F9C  0836               	movf	??___flmul+1,w
  9193  0F9D  00C2               	movwf	___flmul@prod+1
  9194  0F9E  0835               	movf	??___flmul,w
  9195  0F9F  00C1               	movwf	___flmul@prod
  9196  0FA0                     l2727:	
  9197  0FA0  3001               	movlw	1
  9198  0FA1  07C5               	addwf	___flmul@temp,f
  9199  0FA2  1803               	skipnc
  9200  0FA3  0AC6               	incf	___flmul@temp+1,f
  9201  0FA4  3000               	movlw	0
  9202  0FA5  07C6               	addwf	___flmul@temp+1,f
  9203  0FA6                     l2729:	
  9204  0FA6  0846               	movf	___flmul@temp+1,w
  9205  0FA7  3A80               	xorlw	128
  9206  0FA8  00FF               	movwf	btemp+1
  9207  0FA9  3080               	movlw	128
  9208  0FAA  027F               	subwf	btemp+1,w
  9209  0FAB  1D03               	skipz
  9210  0FAC  2FAF               	goto	u4235
  9211  0FAD  30FF               	movlw	255
  9212  0FAE  0245               	subwf	___flmul@temp,w
  9213  0FAF                     u4235:	
  9214  0FAF  1C03               	skipc
  9215  0FB0  2FB2               	goto	u4231
  9216  0FB1  2FB3               	goto	u4230
  9217  0FB2                     u4231:	
  9218  0FB2  2FBE               	goto	l2733
  9219  0FB3                     u4230:	
  9220  0FB3                     l2731:	
  9221  0FB3  307F               	movlw	127
  9222  0FB4  1283               	bcf	3,5	;RP0=0, select bank0
  9223  0FB5  1303               	bcf	3,6	;RP1=0, select bank0
  9224  0FB6  00C4               	movwf	___flmul@prod+3
  9225  0FB7  3080               	movlw	128
  9226  0FB8  00C3               	movwf	___flmul@prod+2
  9227  0FB9  3000               	movlw	0
  9228  0FBA  00C2               	movwf	___flmul@prod+1
  9229  0FBB  3000               	movlw	0
  9230  0FBC  00C1               	movwf	___flmul@prod
  9231  0FBD  2FF3               	goto	l753
  9232  0FBE                     l2733:	
  9233  0FBE  1283               	bcf	3,5	;RP0=0, select bank0
  9234  0FBF  1303               	bcf	3,6	;RP1=0, select bank0
  9235  0FC0  0846               	movf	___flmul@temp+1,w
  9236  0FC1  3A80               	xorlw	128
  9237  0FC2  00FF               	movwf	btemp+1
  9238  0FC3  3080               	movlw	128
  9239  0FC4  027F               	subwf	btemp+1,w
  9240  0FC5  1D03               	skipz
  9241  0FC6  2FC9               	goto	u4245
  9242  0FC7  3001               	movlw	1
  9243  0FC8  0245               	subwf	___flmul@temp,w
  9244  0FC9                     u4245:	
  9245  0FC9  1803               	skipnc
  9246  0FCA  2FCC               	goto	u4241
  9247  0FCB  2FCD               	goto	u4240
  9248  0FCC                     u4241:	
  9249  0FCC  2FD9               	goto	l2739
  9250  0FCD                     u4240:	
  9251  0FCD                     l2735:	
  9252  0FCD  3000               	movlw	0
  9253  0FCE  1283               	bcf	3,5	;RP0=0, select bank0
  9254  0FCF  1303               	bcf	3,6	;RP1=0, select bank0
  9255  0FD0  00C4               	movwf	___flmul@prod+3
  9256  0FD1  3000               	movlw	0
  9257  0FD2  00C3               	movwf	___flmul@prod+2
  9258  0FD3  3000               	movlw	0
  9259  0FD4  00C2               	movwf	___flmul@prod+1
  9260  0FD5  3000               	movlw	0
  9261  0FD6  00C1               	movwf	___flmul@prod
  9262  0FD7                     l2737:	
  9263  0FD7  01BA               	clrf	___flmul@sign
  9264  0FD8  2FF3               	goto	l753
  9265  0FD9                     l2739:	
  9266  0FD9  1283               	bcf	3,5	;RP0=0, select bank0
  9267  0FDA  1303               	bcf	3,6	;RP1=0, select bank0
  9268  0FDB  0845               	movf	___flmul@temp,w
  9269  0FDC  00B5               	movwf	??___flmul
  9270  0FDD  0835               	movf	??___flmul,w
  9271  0FDE  00C0               	movwf	___flmul@bexp
  9272  0FDF  30FF               	movlw	255
  9273  0FE0  05C1               	andwf	___flmul@prod,f
  9274  0FE1  30FF               	movlw	255
  9275  0FE2  05C2               	andwf	___flmul@prod+1,f
  9276  0FE3  307F               	movlw	127
  9277  0FE4  05C3               	andwf	___flmul@prod+2,f
  9278  0FE5  3000               	movlw	0
  9279  0FE6  05C4               	andwf	___flmul@prod+3,f
  9280  0FE7                     l2741:	
  9281  0FE7  1C40               	btfss	___flmul@bexp,0
  9282  0FE8  2FEA               	goto	u4251
  9283  0FE9  2FEB               	goto	u4250
  9284  0FEA                     u4251:	
  9285  0FEA  2FEC               	goto	l2745
  9286  0FEB                     u4250:	
  9287  0FEB                     l2743:	
  9288  0FEB  17C3               	bsf	___flmul@prod+2,7
  9289  0FEC                     l2745:	
  9290  0FEC  0840               	movf	___flmul@bexp,w
  9291  0FED  00B5               	movwf	??___flmul
  9292  0FEE  1003               	clrc
  9293  0FEF  0C35               	rrf	??___flmul,w
  9294  0FF0  00B6               	movwf	??___flmul+1
  9295  0FF1  0836               	movf	??___flmul+1,w
  9296  0FF2  00C4               	movwf	___flmul@prod+3
  9297  0FF3                     l753:	
  9298  0FF3  083A               	movf	___flmul@sign,w
  9299  0FF4  00B5               	movwf	??___flmul
  9300  0FF5  0835               	movf	??___flmul,w
  9301  0FF6  04C4               	iorwf	___flmul@prod+3,f
  9302  0FF7                     l2747:	
  9303  0FF7  0844               	movf	___flmul@prod+3,w
  9304  0FF8  00B0               	movwf	?___flmul+3
  9305  0FF9  0843               	movf	___flmul@prod+2,w
  9306  0FFA  00AF               	movwf	?___flmul+2
  9307  0FFB  0842               	movf	___flmul@prod+1,w
  9308  0FFC  00AE               	movwf	?___flmul+1
  9309  0FFD  0841               	movf	___flmul@prod,w
  9310  0FFE  00AD               	movwf	?___flmul
  9311  0FFF                     l741:	
  9312  0FFF  0008               	return
  9313  1000                     __end_of___flmul:	
  9314                           
  9315                           	psect	text23
  9316  1BE6                     __ptext23:	
  9317 ;; *************** function __Umul8_16 *****************
  9318 ;; Defined at:
  9319 ;;		line 4 in file "C:\Program Files (x86)\Microchip\xc8\v2.10\pic\sources\c90\common\Umul8_16.c"
  9320 ;; Parameters:    Size  Location     Type
  9321 ;;  multiplier      1    wreg     unsigned char 
  9322 ;;  multiplicand    1    0[COMMON] unsigned char 
  9323 ;; Auto vars:     Size  Location     Type
  9324 ;;  multiplier      1    8[COMMON] unsigned char 
  9325 ;;  word_mpld       2    6[COMMON] unsigned int 
  9326 ;;  product         2    4[COMMON] unsigned int 
  9327 ;; Return value:  Size  Location     Type
  9328 ;;                  2    0[COMMON] unsigned int 
  9329 ;; Registers used:
  9330 ;;		wreg, status,2, status,0
  9331 ;; Tracked objects:
  9332 ;;		On entry : 0/0
  9333 ;;		On exit  : 0/0
  9334 ;;		Unchanged: 0/0
  9335 ;; Data sizes:     COMMON   BANK0   BANK1   BANK3   BANK2
  9336 ;;      Params:         2       0       0       0       0
  9337 ;;      Locals:         5       0       0       0       0
  9338 ;;      Temps:          2       0       0       0       0
  9339 ;;      Totals:         9       0       0       0       0
  9340 ;;Total ram usage:        9 bytes
  9341 ;; Hardware stack levels used:    1
  9342 ;; This function calls:
  9343 ;;		Nothing
  9344 ;; This function is called by:
  9345 ;;		___flmul
  9346 ;; This function uses a non-reentrant model
  9347 ;;
  9348                           
  9349                           
  9350                           ;psect for function __Umul8_16
  9351  1BE6                     __Umul8_16:	
  9352                           
  9353                           ;incstack = 0
  9354                           ; Regs used in __Umul8_16: [wreg+status,2+status,0]
  9355                           ;__Umul8_16@multiplier stored from wreg
  9356  1BE6  00F8               	movwf	__Umul8_16@multiplier
  9357  1BE7                     l2273:	
  9358  1BE7  01F4               	clrf	__Umul8_16@product
  9359  1BE8  01F5               	clrf	__Umul8_16@product+1
  9360  1BE9                     l2275:	
  9361  1BE9  0870               	movf	__Umul8_16@multiplicand,w
  9362  1BEA  00F2               	movwf	??__Umul8_16
  9363  1BEB  01F3               	clrf	??__Umul8_16+1
  9364  1BEC  0872               	movf	??__Umul8_16,w
  9365  1BED  00F6               	movwf	__Umul8_16@word_mpld
  9366  1BEE  0873               	movf	??__Umul8_16+1,w
  9367  1BEF  00F7               	movwf	__Umul8_16@word_mpld+1
  9368  1BF0                     l2277:	
  9369  1BF0  1C78               	btfss	__Umul8_16@multiplier,0
  9370  1BF1  2BF3               	goto	u3081
  9371  1BF2  2BF4               	goto	u3080
  9372  1BF3                     u3081:	
  9373  1BF3  2BFA               	goto	l807
  9374  1BF4                     u3080:	
  9375  1BF4                     l2279:	
  9376  1BF4  0876               	movf	__Umul8_16@word_mpld,w
  9377  1BF5  07F4               	addwf	__Umul8_16@product,f
  9378  1BF6  1803               	skipnc
  9379  1BF7  0AF5               	incf	__Umul8_16@product+1,f
  9380  1BF8  0877               	movf	__Umul8_16@word_mpld+1,w
  9381  1BF9  07F5               	addwf	__Umul8_16@product+1,f
  9382  1BFA                     l807:	
  9383  1BFA  3001               	movlw	1
  9384  1BFB                     u3095:	
  9385  1BFB  1003               	clrc
  9386  1BFC  0DF6               	rlf	__Umul8_16@word_mpld,f
  9387  1BFD  0DF7               	rlf	__Umul8_16@word_mpld+1,f
  9388  1BFE  3EFF               	addlw	-1
  9389  1BFF  1D03               	skipz
  9390  1C00  2BFB               	goto	u3095
  9391  1C01  1003               	clrc
  9392  1C02  0CF8               	rrf	__Umul8_16@multiplier,f
  9393  1C03                     l2281:	
  9394  1C03  0878               	movf	__Umul8_16@multiplier,w
  9395  1C04  1D03               	btfss	3,2
  9396  1C05  2C07               	goto	u3101
  9397  1C06  2C08               	goto	u3100
  9398  1C07                     u3101:	
  9399  1C07  2BF0               	goto	l2277
  9400  1C08                     u3100:	
  9401  1C08                     l2283:	
  9402  1C08  0875               	movf	__Umul8_16@product+1,w
  9403  1C09  00F1               	movwf	?__Umul8_16+1
  9404  1C0A  0874               	movf	__Umul8_16@product,w
  9405  1C0B  00F0               	movwf	?__Umul8_16
  9406  1C0C                     l809:	
  9407  1C0C  0008               	return
  9408  1C0D                     __end_of__Umul8_16:	
  9409                           
  9410                           	psect	text24
  9411  118A                     __ptext24:	
  9412 ;; *************** function ___fldiv *****************
  9413 ;; Defined at:
  9414 ;;		line 8 in file "C:\Program Files (x86)\Microchip\xc8\v2.10\pic\sources\c90\common\sprcdiv.c"
  9415 ;; Parameters:    Size  Location     Type
  9416 ;;  a               4    0[COMMON] unsigned int 
  9417 ;;  b               4    4[COMMON] unsigned int 
  9418 ;; Auto vars:     Size  Location     Type
  9419 ;;  grs             4    7[BANK0 ] unsigned long 
  9420 ;;  rem             4    0[BANK0 ] unsigned long 
  9421 ;;  new_exp         2    5[BANK0 ] int 
  9422 ;;  aexp            1   12[BANK0 ] unsigned char 
  9423 ;;  bexp            1   11[BANK0 ] unsigned char 
  9424 ;;  sign            1    4[BANK0 ] unsigned char 
  9425 ;; Return value:  Size  Location     Type
  9426 ;;                  4    0[COMMON] unsigned char 
  9427 ;; Registers used:
  9428 ;;		wreg, status,2, status,0, btemp+1
  9429 ;; Tracked objects:
  9430 ;;		On entry : 0/0
  9431 ;;		On exit  : 0/0
  9432 ;;		Unchanged: 0/0
  9433 ;; Data sizes:     COMMON   BANK0   BANK1   BANK3   BANK2
  9434 ;;      Params:         8       0       0       0       0
  9435 ;;      Locals:         0      13       0       0       0
  9436 ;;      Temps:          5       0       0       0       0
  9437 ;;      Totals:        13      13       0       0       0
  9438 ;;Total ram usage:       26 bytes
  9439 ;; Hardware stack levels used:    1
  9440 ;; This function calls:
  9441 ;;		Nothing
  9442 ;; This function is called by:
  9443 ;;		_read_ADC
  9444 ;; This function uses a non-reentrant model
  9445 ;;
  9446                           
  9447                           
  9448                           ;psect for function ___fldiv
  9449  118A                     ___fldiv:	
  9450  118A                     l3069:	
  9451                           ;incstack = 0
  9452                           ; Regs used in ___fldiv: [wreg+status,2+status,0+btemp+1]
  9453                           
  9454  118A  0877               	movf	___fldiv@b+3,w
  9455  118B  3980               	andlw	128
  9456  118C  00F8               	movwf	??___fldiv
  9457  118D  0878               	movf	??___fldiv,w
  9458  118E  1283               	bcf	3,5	;RP0=0, select bank0
  9459  118F  1303               	bcf	3,6	;RP1=0, select bank0
  9460  1190  00A4               	movwf	___fldiv@sign
  9461  1191                     l3071:	
  9462  1191  0877               	movf	___fldiv@b+3,w
  9463  1192  00F8               	movwf	??___fldiv
  9464  1193  0778               	addwf	??___fldiv,w
  9465  1194  00F9               	movwf	??___fldiv+1
  9466  1195  0879               	movf	??___fldiv+1,w
  9467  1196  00AB               	movwf	___fldiv@bexp
  9468  1197                     l3073:	
  9469  1197  1FF6               	btfss	___fldiv@b+2,7
  9470  1198  299A               	goto	u5191
  9471  1199  299B               	goto	u5190
  9472  119A                     u5191:	
  9473  119A  299C               	goto	l3077
  9474  119B                     u5190:	
  9475  119B                     l3075:	
  9476  119B  142B               	bsf	___fldiv@bexp,0
  9477  119C                     l3077:	
  9478  119C  082B               	movf	___fldiv@bexp,w
  9479  119D  1903               	btfsc	3,2
  9480  119E  29A0               	goto	u5201
  9481  119F  29A1               	goto	u5200
  9482  11A0                     u5201:	
  9483  11A0  29B1               	goto	l3087
  9484  11A1                     u5200:	
  9485  11A1                     l3079:	
  9486  11A1  0A2B               	incf	___fldiv@bexp,w
  9487  11A2  1D03               	btfss	3,2
  9488  11A3  29A5               	goto	u5211
  9489  11A4  29A6               	goto	u5210
  9490  11A5                     u5211:	
  9491  11A5  29AE               	goto	l3083
  9492  11A6                     u5210:	
  9493  11A6                     l3081:	
  9494  11A6  3000               	movlw	0
  9495  11A7  00F7               	movwf	___fldiv@b+3
  9496  11A8  3000               	movlw	0
  9497  11A9  00F6               	movwf	___fldiv@b+2
  9498  11AA  3000               	movlw	0
  9499  11AB  00F5               	movwf	___fldiv@b+1
  9500  11AC  3000               	movlw	0
  9501  11AD  00F4               	movwf	___fldiv@b
  9502  11AE                     l3083:	
  9503  11AE  17F6               	bsf	___fldiv@b+2,7
  9504  11AF                     l3085:	
  9505  11AF  01F7               	clrf	___fldiv@b+3
  9506  11B0  29B9               	goto	l3089
  9507  11B1                     l3087:	
  9508  11B1  3000               	movlw	0
  9509  11B2  00F7               	movwf	___fldiv@b+3
  9510  11B3  3000               	movlw	0
  9511  11B4  00F6               	movwf	___fldiv@b+2
  9512  11B5  3000               	movlw	0
  9513  11B6  00F5               	movwf	___fldiv@b+1
  9514  11B7  3000               	movlw	0
  9515  11B8  00F4               	movwf	___fldiv@b
  9516  11B9                     l3089:	
  9517  11B9  0873               	movf	___fldiv@a+3,w
  9518  11BA  3980               	andlw	128
  9519  11BB  00F8               	movwf	??___fldiv
  9520  11BC  0878               	movf	??___fldiv,w
  9521  11BD  06A4               	xorwf	___fldiv@sign,f
  9522  11BE                     l3091:	
  9523  11BE  0873               	movf	___fldiv@a+3,w
  9524  11BF  00F8               	movwf	??___fldiv
  9525  11C0  0778               	addwf	??___fldiv,w
  9526  11C1  00F9               	movwf	??___fldiv+1
  9527  11C2  0879               	movf	??___fldiv+1,w
  9528  11C3  00AC               	movwf	___fldiv@aexp
  9529  11C4                     l3093:	
  9530  11C4  1FF2               	btfss	___fldiv@a+2,7
  9531  11C5  29C7               	goto	u5221
  9532  11C6  29C8               	goto	u5220
  9533  11C7                     u5221:	
  9534  11C7  29C9               	goto	l3097
  9535  11C8                     u5220:	
  9536  11C8                     l3095:	
  9537  11C8  142C               	bsf	___fldiv@aexp,0
  9538  11C9                     l3097:	
  9539  11C9  082C               	movf	___fldiv@aexp,w
  9540  11CA  1903               	btfsc	3,2
  9541  11CB  29CD               	goto	u5231
  9542  11CC  29CE               	goto	u5230
  9543  11CD                     u5231:	
  9544  11CD  29DE               	goto	l3107
  9545  11CE                     u5230:	
  9546  11CE                     l3099:	
  9547  11CE  0A2C               	incf	___fldiv@aexp,w
  9548  11CF  1D03               	btfss	3,2
  9549  11D0  29D2               	goto	u5241
  9550  11D1  29D3               	goto	u5240
  9551  11D2                     u5241:	
  9552  11D2  29DB               	goto	l3103
  9553  11D3                     u5240:	
  9554  11D3                     l3101:	
  9555  11D3  3000               	movlw	0
  9556  11D4  00F3               	movwf	___fldiv@a+3
  9557  11D5  3000               	movlw	0
  9558  11D6  00F2               	movwf	___fldiv@a+2
  9559  11D7  3000               	movlw	0
  9560  11D8  00F1               	movwf	___fldiv@a+1
  9561  11D9  3000               	movlw	0
  9562  11DA  00F0               	movwf	___fldiv@a
  9563  11DB                     l3103:	
  9564  11DB  17F2               	bsf	___fldiv@a+2,7
  9565  11DC                     l3105:	
  9566  11DC  01F3               	clrf	___fldiv@a+3
  9567  11DD  29E6               	goto	l701
  9568  11DE                     l3107:	
  9569  11DE  3000               	movlw	0
  9570  11DF  00F3               	movwf	___fldiv@a+3
  9571  11E0  3000               	movlw	0
  9572  11E1  00F2               	movwf	___fldiv@a+2
  9573  11E2  3000               	movlw	0
  9574  11E3  00F1               	movwf	___fldiv@a+1
  9575  11E4  3000               	movlw	0
  9576  11E5  00F0               	movwf	___fldiv@a
  9577  11E6                     l701:	
  9578  11E6  0873               	movf	___fldiv@a+3,w
  9579  11E7  0472               	iorwf	___fldiv@a+2,w
  9580  11E8  0471               	iorwf	___fldiv@a+1,w
  9581  11E9  0470               	iorwf	___fldiv@a,w
  9582  11EA  1D03               	skipz
  9583  11EB  29ED               	goto	u5251
  9584  11EC  29EE               	goto	u5250
  9585  11ED                     u5251:	
  9586  11ED  2A07               	goto	l3117
  9587  11EE                     u5250:	
  9588  11EE                     l3109:	
  9589  11EE  3000               	movlw	0
  9590  11EF  00F7               	movwf	___fldiv@b+3
  9591  11F0  3000               	movlw	0
  9592  11F1  00F6               	movwf	___fldiv@b+2
  9593  11F2  3000               	movlw	0
  9594  11F3  00F5               	movwf	___fldiv@b+1
  9595  11F4  3000               	movlw	0
  9596  11F5  00F4               	movwf	___fldiv@b
  9597  11F6  3080               	movlw	128
  9598  11F7  04F6               	iorwf	___fldiv@b+2,f
  9599  11F8  307F               	movlw	127
  9600  11F9  04F7               	iorwf	___fldiv@b+3,f
  9601  11FA                     l3111:	
  9602  11FA  0824               	movf	___fldiv@sign,w
  9603  11FB  00F8               	movwf	??___fldiv
  9604  11FC  0878               	movf	??___fldiv,w
  9605  11FD  04F7               	iorwf	___fldiv@b+3,f
  9606  11FE                     l3113:	
  9607  11FE  0877               	movf	___fldiv@b+3,w
  9608  11FF  00F3               	movwf	?___fldiv+3
  9609  1200  0876               	movf	___fldiv@b+2,w
  9610  1201  00F2               	movwf	?___fldiv+2
  9611  1202  0875               	movf	___fldiv@b+1,w
  9612  1203  00F1               	movwf	?___fldiv+1
  9613  1204  0874               	movf	___fldiv@b,w
  9614  1205  00F0               	movwf	?___fldiv
  9615  1206  2B6C               	goto	l703
  9616  1207                     l3117:	
  9617  1207  082B               	movf	___fldiv@bexp,w
  9618  1208  1D03               	btfss	3,2
  9619  1209  2A0B               	goto	u5261
  9620  120A  2A0C               	goto	u5260
  9621  120B                     u5261:	
  9622  120B  2A15               	goto	l3123
  9623  120C                     u5260:	
  9624  120C                     l3119:	
  9625  120C  3000               	movlw	0
  9626  120D  00F3               	movwf	?___fldiv+3
  9627  120E  3000               	movlw	0
  9628  120F  00F2               	movwf	?___fldiv+2
  9629  1210  3000               	movlw	0
  9630  1211  00F1               	movwf	?___fldiv+1
  9631  1212  3000               	movlw	0
  9632  1213  00F0               	movwf	?___fldiv
  9633  1214  2B6C               	goto	l703
  9634  1215                     l3123:	
  9635  1215  082B               	movf	___fldiv@bexp,w
  9636  1216  00F8               	movwf	??___fldiv
  9637  1217  01F9               	clrf	??___fldiv+1
  9638  1218  0879               	movf	??___fldiv+1,w
  9639  1219  00FB               	movwf	??___fldiv+3
  9640  121A  082C               	movf	___fldiv@aexp,w
  9641  121B  0278               	subwf	??___fldiv,w
  9642  121C  00FA               	movwf	??___fldiv+2
  9643  121D  1C03               	skipc
  9644  121E  03FB               	decf	??___fldiv+3,f
  9645  121F  087A               	movf	??___fldiv+2,w
  9646  1220  3E7F               	addlw	127
  9647  1221  00A5               	movwf	___fldiv@new_exp
  9648  1222  087B               	movf	??___fldiv+3,w
  9649  1223  1803               	skipnc
  9650  1224  3E01               	addlw	1
  9651  1225  3E00               	addlw	0
  9652  1226  00A6               	movwf	___fldiv@new_exp+1
  9653  1227                     l3125:	
  9654  1227  0877               	movf	___fldiv@b+3,w
  9655  1228  00A3               	movwf	___fldiv@rem+3
  9656  1229  0876               	movf	___fldiv@b+2,w
  9657  122A  00A2               	movwf	___fldiv@rem+2
  9658  122B  0875               	movf	___fldiv@b+1,w
  9659  122C  00A1               	movwf	___fldiv@rem+1
  9660  122D  0874               	movf	___fldiv@b,w
  9661  122E  00A0               	movwf	___fldiv@rem
  9662  122F                     l3127:	
  9663  122F  3000               	movlw	0
  9664  1230  00F7               	movwf	___fldiv@b+3
  9665  1231  3000               	movlw	0
  9666  1232  00F6               	movwf	___fldiv@b+2
  9667  1233  3000               	movlw	0
  9668  1234  00F5               	movwf	___fldiv@b+1
  9669  1235  3000               	movlw	0
  9670  1236  00F4               	movwf	___fldiv@b
  9671  1237                     l3129:	
  9672  1237  3000               	movlw	0
  9673  1238  00AA               	movwf	___fldiv@grs+3
  9674  1239  3000               	movlw	0
  9675  123A  00A9               	movwf	___fldiv@grs+2
  9676  123B  3000               	movlw	0
  9677  123C  00A8               	movwf	___fldiv@grs+1
  9678  123D  3000               	movlw	0
  9679  123E  00A7               	movwf	___fldiv@grs
  9680  123F                     l3131:	
  9681  123F  01AC               	clrf	___fldiv@aexp
  9682  1240  2A91               	goto	l3151
  9683  1241                     l3133:	
  9684  1241  082C               	movf	___fldiv@aexp,w
  9685  1242  1903               	btfsc	3,2
  9686  1243  2A45               	goto	u5271
  9687  1244  2A46               	goto	u5270
  9688  1245                     u5271:	
  9689  1245  2A66               	goto	l3143
  9690  1246                     u5270:	
  9691  1246                     l3135:	
  9692  1246  3001               	movlw	1
  9693  1247  00F8               	movwf	??___fldiv
  9694  1248                     u5285:	
  9695  1248  1003               	clrc
  9696  1249  0DA0               	rlf	___fldiv@rem,f
  9697  124A  0DA1               	rlf	___fldiv@rem+1,f
  9698  124B  0DA2               	rlf	___fldiv@rem+2,f
  9699  124C  0DA3               	rlf	___fldiv@rem+3,f
  9700  124D  0BF8               	decfsz	??___fldiv,f
  9701  124E  2A48               	goto	u5285
  9702  124F  3001               	movlw	1
  9703  1250  00F8               	movwf	??___fldiv
  9704  1251                     u5295:	
  9705  1251  1003               	clrc
  9706  1252  0DF4               	rlf	___fldiv@b,f
  9707  1253  0DF5               	rlf	___fldiv@b+1,f
  9708  1254  0DF6               	rlf	___fldiv@b+2,f
  9709  1255  0DF7               	rlf	___fldiv@b+3,f
  9710  1256  0BF8               	decfsz	??___fldiv,f
  9711  1257  2A51               	goto	u5295
  9712  1258                     l3137:	
  9713  1258  1FAA               	btfss	___fldiv@grs+3,7
  9714  1259  2A5B               	goto	u5301
  9715  125A  2A5C               	goto	u5300
  9716  125B                     u5301:	
  9717  125B  2A5D               	goto	l3141
  9718  125C                     u5300:	
  9719  125C                     l3139:	
  9720  125C  1474               	bsf	___fldiv@b,0
  9721  125D                     l3141:	
  9722  125D  3001               	movlw	1
  9723  125E  00F8               	movwf	??___fldiv
  9724  125F                     u5315:	
  9725  125F  1003               	clrc
  9726  1260  0DA7               	rlf	___fldiv@grs,f
  9727  1261  0DA8               	rlf	___fldiv@grs+1,f
  9728  1262  0DA9               	rlf	___fldiv@grs+2,f
  9729  1263  0DAA               	rlf	___fldiv@grs+3,f
  9730  1264  0BF8               	decfsz	??___fldiv,f
  9731  1265  2A5F               	goto	u5315
  9732  1266                     l3143:	
  9733  1266  0873               	movf	___fldiv@a+3,w
  9734  1267  0223               	subwf	___fldiv@rem+3,w
  9735  1268  1D03               	skipz
  9736  1269  2A74               	goto	u5325
  9737  126A  0872               	movf	___fldiv@a+2,w
  9738  126B  0222               	subwf	___fldiv@rem+2,w
  9739  126C  1D03               	skipz
  9740  126D  2A74               	goto	u5325
  9741  126E  0871               	movf	___fldiv@a+1,w
  9742  126F  0221               	subwf	___fldiv@rem+1,w
  9743  1270  1D03               	skipz
  9744  1271  2A74               	goto	u5325
  9745  1272  0870               	movf	___fldiv@a,w
  9746  1273  0220               	subwf	___fldiv@rem,w
  9747  1274                     u5325:	
  9748  1274  1C03               	skipc
  9749  1275  2A77               	goto	u5321
  9750  1276  2A78               	goto	u5320
  9751  1277                     u5321:	
  9752  1277  2A8D               	goto	l3149
  9753  1278                     u5320:	
  9754  1278                     l3145:	
  9755  1278  172A               	bsf	___fldiv@grs+3,6
  9756  1279                     l3147:	
  9757  1279  0870               	movf	___fldiv@a,w
  9758  127A  02A0               	subwf	___fldiv@rem,f
  9759  127B  0871               	movf	___fldiv@a+1,w
  9760  127C  1C03               	skipc
  9761  127D  0F71               	incfsz	___fldiv@a+1,w
  9762  127E  2A80               	goto	u5335
  9763  127F  2A81               	goto	u5336
  9764  1280                     u5335:	
  9765  1280  02A1               	subwf	___fldiv@rem+1,f
  9766  1281                     u5336:	
  9767  1281  0872               	movf	___fldiv@a+2,w
  9768  1282  1C03               	skipc
  9769  1283  0F72               	incfsz	___fldiv@a+2,w
  9770  1284  2A86               	goto	u5337
  9771  1285  2A87               	goto	u5338
  9772  1286                     u5337:	
  9773  1286  02A2               	subwf	___fldiv@rem+2,f
  9774  1287                     u5338:	
  9775  1287  0873               	movf	___fldiv@a+3,w
  9776  1288  1C03               	skipc
  9777  1289  0F73               	incfsz	___fldiv@a+3,w
  9778  128A  2A8C               	goto	u5339
  9779  128B  2A8D               	goto	u5330
  9780  128C                     u5339:	
  9781  128C  02A3               	subwf	___fldiv@rem+3,f
  9782  128D                     u5330:	
  9783  128D                     l3149:	
  9784  128D  3001               	movlw	1
  9785  128E  00F8               	movwf	??___fldiv
  9786  128F  0878               	movf	??___fldiv,w
  9787  1290  07AC               	addwf	___fldiv@aexp,f
  9788  1291                     l3151:	
  9789  1291  301A               	movlw	26
  9790  1292  022C               	subwf	___fldiv@aexp,w
  9791  1293  1C03               	skipc
  9792  1294  2A96               	goto	u5341
  9793  1295  2A97               	goto	u5340
  9794  1296                     u5341:	
  9795  1296  2A41               	goto	l3133
  9796  1297                     u5340:	
  9797  1297                     l3153:	
  9798  1297  0823               	movf	___fldiv@rem+3,w
  9799  1298  0422               	iorwf	___fldiv@rem+2,w
  9800  1299  0421               	iorwf	___fldiv@rem+1,w
  9801  129A  0420               	iorwf	___fldiv@rem,w
  9802  129B  1903               	skipnz
  9803  129C  2A9E               	goto	u5351
  9804  129D  2A9F               	goto	u5350
  9805  129E                     u5351:	
  9806  129E  2ABE               	goto	l3167
  9807  129F                     u5350:	
  9808  129F                     l3155:	
  9809  129F  1427               	bsf	___fldiv@grs,0
  9810  12A0  2ABE               	goto	l3167
  9811  12A1                     l3157:	
  9812  12A1  3001               	movlw	1
  9813  12A2  00F8               	movwf	??___fldiv
  9814  12A3                     u5365:	
  9815  12A3  1003               	clrc
  9816  12A4  0DF4               	rlf	___fldiv@b,f
  9817  12A5  0DF5               	rlf	___fldiv@b+1,f
  9818  12A6  0DF6               	rlf	___fldiv@b+2,f
  9819  12A7  0DF7               	rlf	___fldiv@b+3,f
  9820  12A8  0BF8               	decfsz	??___fldiv,f
  9821  12A9  2AA3               	goto	u5365
  9822  12AA                     l3159:	
  9823  12AA  1FAA               	btfss	___fldiv@grs+3,7
  9824  12AB  2AAD               	goto	u5371
  9825  12AC  2AAE               	goto	u5370
  9826  12AD                     u5371:	
  9827  12AD  2AAF               	goto	l3163
  9828  12AE                     u5370:	
  9829  12AE                     l3161:	
  9830  12AE  1474               	bsf	___fldiv@b,0
  9831  12AF                     l3163:	
  9832  12AF  3001               	movlw	1
  9833  12B0  00F8               	movwf	??___fldiv
  9834  12B1                     u5385:	
  9835  12B1  1003               	clrc
  9836  12B2  0DA7               	rlf	___fldiv@grs,f
  9837  12B3  0DA8               	rlf	___fldiv@grs+1,f
  9838  12B4  0DA9               	rlf	___fldiv@grs+2,f
  9839  12B5  0DAA               	rlf	___fldiv@grs+3,f
  9840  12B6  0BF8               	decfsz	??___fldiv,f
  9841  12B7  2AB1               	goto	u5385
  9842  12B8                     l3165:	
  9843  12B8  30FF               	movlw	255
  9844  12B9  07A5               	addwf	___fldiv@new_exp,f
  9845  12BA  1803               	skipnc
  9846  12BB  0AA6               	incf	___fldiv@new_exp+1,f
  9847  12BC  30FF               	movlw	255
  9848  12BD  07A6               	addwf	___fldiv@new_exp+1,f
  9849  12BE                     l3167:	
  9850  12BE  1FF6               	btfss	___fldiv@b+2,7
  9851  12BF  2AC1               	goto	u5391
  9852  12C0  2AC2               	goto	u5390
  9853  12C1                     u5391:	
  9854  12C1  2AA1               	goto	l3157
  9855  12C2                     u5390:	
  9856  12C2                     l3169:	
  9857  12C2  01AC               	clrf	___fldiv@aexp
  9858  12C3                     l3171:	
  9859  12C3  1FAA               	btfss	___fldiv@grs+3,7
  9860  12C4  2AC6               	goto	u5401
  9861  12C5  2AC7               	goto	u5400
  9862  12C6                     u5401:	
  9863  12C6  2AE3               	goto	l3179
  9864  12C7                     u5400:	
  9865  12C7                     l3173:	
  9866  12C7  30FF               	movlw	255
  9867  12C8  0527               	andwf	___fldiv@grs,w
  9868  12C9  00F8               	movwf	??___fldiv
  9869  12CA  30FF               	movlw	255
  9870  12CB  0528               	andwf	___fldiv@grs+1,w
  9871  12CC  00F9               	movwf	??___fldiv+1
  9872  12CD  30FF               	movlw	255
  9873  12CE  0529               	andwf	___fldiv@grs+2,w
  9874  12CF  00FA               	movwf	??___fldiv+2
  9875  12D0  307F               	movlw	127
  9876  12D1  052A               	andwf	___fldiv@grs+3,w
  9877  12D2  00FB               	movwf	??___fldiv+3
  9878  12D3  087B               	movf	??___fldiv+3,w
  9879  12D4  047A               	iorwf	??___fldiv+2,w
  9880  12D5  0479               	iorwf	??___fldiv+1,w
  9881  12D6  0478               	iorwf	??___fldiv,w
  9882  12D7  1903               	skipnz
  9883  12D8  2ADA               	goto	u5411
  9884  12D9  2ADB               	goto	u5410
  9885  12DA                     u5411:	
  9886  12DA  2ADE               	goto	l717
  9887  12DB                     u5410:	
  9888  12DB                     l3175:	
  9889  12DB  01AC               	clrf	___fldiv@aexp
  9890  12DC  0AAC               	incf	___fldiv@aexp,f
  9891  12DD  2AE3               	goto	l3179
  9892  12DE                     l717:	
  9893  12DE  1C74               	btfss	___fldiv@b,0
  9894  12DF  2AE1               	goto	u5421
  9895  12E0  2AE2               	goto	u5420
  9896  12E1                     u5421:	
  9897  12E1  2AE3               	goto	l3179
  9898  12E2                     u5420:	
  9899  12E2  2ADB               	goto	l3175
  9900  12E3                     l3179:	
  9901  12E3  082C               	movf	___fldiv@aexp,w
  9902  12E4  1903               	btfsc	3,2
  9903  12E5  2AE7               	goto	u5431
  9904  12E6  2AE8               	goto	u5430
  9905  12E7                     u5431:	
  9906  12E7  2B19               	goto	l3189
  9907  12E8                     u5430:	
  9908  12E8                     l3181:	
  9909  12E8  3001               	movlw	1
  9910  12E9  07F4               	addwf	___fldiv@b,f
  9911  12EA  3000               	movlw	0
  9912  12EB  1803               	skipnc
  9913  12EC  3001               	movlw	1
  9914  12ED  07F5               	addwf	___fldiv@b+1,f
  9915  12EE  3000               	movlw	0
  9916  12EF  1803               	skipnc
  9917  12F0  3001               	movlw	1
  9918  12F1  07F6               	addwf	___fldiv@b+2,f
  9919  12F2  3000               	movlw	0
  9920  12F3  1803               	skipnc
  9921  12F4  3001               	movlw	1
  9922  12F5  07F7               	addwf	___fldiv@b+3,f
  9923  12F6                     l3183:	
  9924  12F6  1C77               	btfss	___fldiv@b+3,0
  9925  12F7  2AF9               	goto	u5441
  9926  12F8  2AFA               	goto	u5440
  9927  12F9                     u5441:	
  9928  12F9  2B19               	goto	l3189
  9929  12FA                     u5440:	
  9930  12FA                     l3185:	
  9931  12FA  0874               	movf	___fldiv@b,w
  9932  12FB  00F8               	movwf	??___fldiv
  9933  12FC  0875               	movf	___fldiv@b+1,w
  9934  12FD  00F9               	movwf	??___fldiv+1
  9935  12FE  0876               	movf	___fldiv@b+2,w
  9936  12FF  00FA               	movwf	??___fldiv+2
  9937  1300  0877               	movf	___fldiv@b+3,w
  9938  1301  00FB               	movwf	??___fldiv+3
  9939  1302  3001               	movlw	1
  9940  1303  00FC               	movwf	??___fldiv+4
  9941  1304                     u5455:	
  9942  1304  0D7B               	rlf	??___fldiv+3,w
  9943  1305  0CFB               	rrf	??___fldiv+3,f
  9944  1306  0CFA               	rrf	??___fldiv+2,f
  9945  1307  0CF9               	rrf	??___fldiv+1,f
  9946  1308  0CF8               	rrf	??___fldiv,f
  9947  1309                     u5450:	
  9948  1309  0BFC               	decfsz	??___fldiv+4,f
  9949  130A  2B04               	goto	u5455
  9950  130B  087B               	movf	??___fldiv+3,w
  9951  130C  00F7               	movwf	___fldiv@b+3
  9952  130D  087A               	movf	??___fldiv+2,w
  9953  130E  00F6               	movwf	___fldiv@b+2
  9954  130F  0879               	movf	??___fldiv+1,w
  9955  1310  00F5               	movwf	___fldiv@b+1
  9956  1311  0878               	movf	??___fldiv,w
  9957  1312  00F4               	movwf	___fldiv@b
  9958  1313                     l3187:	
  9959  1313  3001               	movlw	1
  9960  1314  07A5               	addwf	___fldiv@new_exp,f
  9961  1315  1803               	skipnc
  9962  1316  0AA6               	incf	___fldiv@new_exp+1,f
  9963  1317  3000               	movlw	0
  9964  1318  07A6               	addwf	___fldiv@new_exp+1,f
  9965  1319                     l3189:	
  9966  1319  0826               	movf	___fldiv@new_exp+1,w
  9967  131A  3A80               	xorlw	128
  9968  131B  00FF               	movwf	btemp+1
  9969  131C  3080               	movlw	128
  9970  131D  027F               	subwf	btemp+1,w
  9971  131E  1D03               	skipz
  9972  131F  2B22               	goto	u5465
  9973  1320  30FF               	movlw	255
  9974  1321  0225               	subwf	___fldiv@new_exp,w
  9975  1322                     u5465:	
  9976  1322  1C03               	skipc
  9977  1323  2B25               	goto	u5461
  9978  1324  2B26               	goto	u5460
  9979  1325                     u5461:	
  9980  1325  2B34               	goto	l3193
  9981  1326                     u5460:	
  9982  1326                     l3191:	
  9983  1326  30FF               	movlw	255
  9984  1327  1283               	bcf	3,5	;RP0=0, select bank0
  9985  1328  1303               	bcf	3,6	;RP1=0, select bank0
  9986  1329  00A5               	movwf	___fldiv@new_exp
  9987  132A  3000               	movlw	0
  9988  132B  00A6               	movwf	___fldiv@new_exp+1
  9989  132C  3000               	movlw	0
  9990  132D  00F7               	movwf	___fldiv@b+3
  9991  132E  3000               	movlw	0
  9992  132F  00F6               	movwf	___fldiv@b+2
  9993  1330  3000               	movlw	0
  9994  1331  00F5               	movwf	___fldiv@b+1
  9995  1332  3000               	movlw	0
  9996  1333  00F4               	movwf	___fldiv@b
  9997  1334                     l3193:	
  9998  1334  1283               	bcf	3,5	;RP0=0, select bank0
  9999  1335  1303               	bcf	3,6	;RP1=0, select bank0
 10000  1336  0826               	movf	___fldiv@new_exp+1,w
 10001  1337  3A80               	xorlw	128
 10002  1338  00FF               	movwf	btemp+1
 10003  1339  3080               	movlw	128
 10004  133A  027F               	subwf	btemp+1,w
 10005  133B  1D03               	skipz
 10006  133C  2B3F               	goto	u5475
 10007  133D  3001               	movlw	1
 10008  133E  0225               	subwf	___fldiv@new_exp,w
 10009  133F                     u5475:	
 10010  133F  1803               	skipnc
 10011  1340  2B42               	goto	u5471
 10012  1341  2B43               	goto	u5470
 10013  1342                     u5471:	
 10014  1342  2B50               	goto	l723
 10015  1343                     u5470:	
 10016  1343                     l3195:	
 10017  1343  1283               	bcf	3,5	;RP0=0, select bank0
 10018  1344  1303               	bcf	3,6	;RP1=0, select bank0
 10019  1345  01A5               	clrf	___fldiv@new_exp
 10020  1346  01A6               	clrf	___fldiv@new_exp+1
 10021  1347                     l3197:	
 10022  1347  3000               	movlw	0
 10023  1348  00F7               	movwf	___fldiv@b+3
 10024  1349  3000               	movlw	0
 10025  134A  00F6               	movwf	___fldiv@b+2
 10026  134B  3000               	movlw	0
 10027  134C  00F5               	movwf	___fldiv@b+1
 10028  134D  3000               	movlw	0
 10029  134E  00F4               	movwf	___fldiv@b
 10030  134F                     l3199:	
 10031  134F  01A4               	clrf	___fldiv@sign
 10032  1350                     l723:	
 10033  1350  1283               	bcf	3,5	;RP0=0, select bank0
 10034  1351  1303               	bcf	3,6	;RP1=0, select bank0
 10035  1352  0825               	movf	___fldiv@new_exp,w
 10036  1353  00F8               	movwf	??___fldiv
 10037  1354  0878               	movf	??___fldiv,w
 10038  1355  00AB               	movwf	___fldiv@bexp
 10039  1356                     l3201:	
 10040  1356  1C2B               	btfss	___fldiv@bexp,0
 10041  1357  2B59               	goto	u5481
 10042  1358  2B5A               	goto	u5480
 10043  1359                     u5481:	
 10044  1359  2B5C               	goto	l3205
 10045  135A                     u5480:	
 10046  135A                     l3203:	
 10047  135A  17F6               	bsf	___fldiv@b+2,7
 10048  135B  2B60               	goto	l725
 10049  135C                     l3205:	
 10050  135C  307F               	movlw	127
 10051  135D  00F8               	movwf	??___fldiv
 10052  135E  0878               	movf	??___fldiv,w
 10053  135F  05F6               	andwf	___fldiv@b+2,f
 10054  1360                     l725:	
 10055  1360  082B               	movf	___fldiv@bexp,w
 10056  1361  00F8               	movwf	??___fldiv
 10057  1362  1003               	clrc
 10058  1363  0C78               	rrf	??___fldiv,w
 10059  1364  00F9               	movwf	??___fldiv+1
 10060  1365  0879               	movf	??___fldiv+1,w
 10061  1366  00F7               	movwf	___fldiv@b+3
 10062  1367  0824               	movf	___fldiv@sign,w
 10063  1368  00F8               	movwf	??___fldiv
 10064  1369  0878               	movf	??___fldiv,w
 10065  136A  04F7               	iorwf	___fldiv@b+3,f
 10066  136B  29FE               	goto	l3113
 10067  136C                     l703:	
 10068  136C  0008               	return
 10069  136D                     __end_of___fldiv:	
 10070                           
 10071                           	psect	text25
 10072  100A                     __ptext25:	
 10073 ;; *************** function _broadcast_BT *****************
 10074 ;; Defined at:
 10075 ;;		line 67 in file "bluetooth.c"
 10076 ;; Parameters:    Size  Location     Type
 10077 ;;		None
 10078 ;; Auto vars:     Size  Location     Type
 10079 ;;		None
 10080 ;; Return value:  Size  Location     Type
 10081 ;;                  1    wreg      void 
 10082 ;; Registers used:
 10083 ;;		wreg
 10084 ;; Tracked objects:
 10085 ;;		On entry : 0/0
 10086 ;;		On exit  : 0/0
 10087 ;;		Unchanged: 0/0
 10088 ;; Data sizes:     COMMON   BANK0   BANK1   BANK3   BANK2
 10089 ;;      Params:         0       0       0       0       0
 10090 ;;      Locals:         0       0       0       0       0
 10091 ;;      Temps:          0       0       0       0       0
 10092 ;;      Totals:         0       0       0       0       0
 10093 ;;Total ram usage:        0 bytes
 10094 ;; Hardware stack levels used:    1
 10095 ;; This function calls:
 10096 ;;		Nothing
 10097 ;; This function is called by:
 10098 ;;		_main
 10099 ;; This function uses a non-reentrant model
 10100 ;;
 10101                           
 10102                           
 10103                           ;psect for function _broadcast_BT
 10104  100A                     _broadcast_BT:	
 10105  100A                     l3301:	
 10106                           ;incstack = 0
 10107                           ; Regs used in _broadcast_BT: [wreg]
 10108                           
 10109                           
 10110                           ;bluetooth.c: 69:   TXREG = 13;
 10111  100A  300D               	movlw	13
 10112  100B  1283               	bcf	3,5	;RP0=0, select bank0
 10113  100C  1303               	bcf	3,6	;RP1=0, select bank0
 10114  100D  0099               	movwf	25	;volatile
 10115  100E                     l130:	
 10116  100E  0008               	return
 10117  100F                     __end_of_broadcast_BT:	
 10118                           
 10119                           	psect	text26
 10120  1B7E                     __ptext26:	
 10121 ;; *************** function _Pin_Init *****************
 10122 ;; Defined at:
 10123 ;;		line 16 in file "main.c"
 10124 ;; Parameters:    Size  Location     Type
 10125 ;;		None
 10126 ;; Auto vars:     Size  Location     Type
 10127 ;;		None
 10128 ;; Return value:  Size  Location     Type
 10129 ;;                  1    wreg      void 
 10130 ;; Registers used:
 10131 ;;		wreg, status,2
 10132 ;; Tracked objects:
 10133 ;;		On entry : 0/0
 10134 ;;		On exit  : 0/0
 10135 ;;		Unchanged: 0/0
 10136 ;; Data sizes:     COMMON   BANK0   BANK1   BANK3   BANK2
 10137 ;;      Params:         0       0       0       0       0
 10138 ;;      Locals:         0       0       0       0       0
 10139 ;;      Temps:          3       0       0       0       0
 10140 ;;      Totals:         3       0       0       0       0
 10141 ;;Total ram usage:        3 bytes
 10142 ;; Hardware stack levels used:    1
 10143 ;; This function calls:
 10144 ;;		Nothing
 10145 ;; This function is called by:
 10146 ;;		_main
 10147 ;; This function uses a non-reentrant model
 10148 ;;
 10149                           
 10150                           
 10151                           ;psect for function _Pin_Init
 10152  1B7E                     _Pin_Init:	
 10153  1B7E                     l3255:	
 10154                           ;incstack = 0
 10155                           ; Regs used in _Pin_Init: [wreg+status,2]
 10156                           
 10157                           
 10158                           ;main.c: 18:     TRISA = 0xFF;
 10159  1B7E  30FF               	movlw	255
 10160  1B7F  1683               	bsf	3,5	;RP0=1, select bank1
 10161  1B80  1303               	bcf	3,6	;RP1=0, select bank1
 10162  1B81  0085               	movwf	5	;volatile
 10163  1B82                     l3257:	
 10164                           
 10165                           ;main.c: 20:     TRISB = 0x00;
 10166  1B82  0186               	clrf	6	;volatile
 10167  1B83                     l3259:	
 10168                           
 10169                           ;main.c: 22:     PORTB = 0xFF;
 10170  1B83  30FF               	movlw	255
 10171  1B84  1283               	bcf	3,5	;RP0=0, select bank0
 10172  1B85  1303               	bcf	3,6	;RP1=0, select bank0
 10173  1B86  0086               	movwf	6	;volatile
 10174  1B87                     l3261:	
 10175                           
 10176                           ;main.c: 28:     _delay((unsigned long)((200)*(20000000/4000.0)));
 10177  1B87  3006               	movlw	6
 10178  1B88  00F2               	movwf	??_Pin_Init+2
 10179  1B89  3013               	movlw	19
 10180  1B8A  00F1               	movwf	??_Pin_Init+1
 10181  1B8B  30AD               	movlw	173
 10182  1B8C  00F0               	movwf	??_Pin_Init
 10183  1B8D                     u6167:	
 10184  1B8D  0BF0               	decfsz	??_Pin_Init,f
 10185  1B8E  2B8D               	goto	u6167
 10186  1B8F  0BF1               	decfsz	??_Pin_Init+1,f
 10187  1B90  2B8D               	goto	u6167
 10188  1B91  0BF2               	decfsz	??_Pin_Init+2,f
 10189  1B92  2B8D               	goto	u6167
 10190  1B93  2B94               	nop2
 10191  1B94                     l3263:	
 10192                           
 10193                           ;main.c: 29:     PORTB = 0;
 10194  1B94  1283               	bcf	3,5	;RP0=0, select bank0
 10195  1B95  1303               	bcf	3,6	;RP1=0, select bank0
 10196  1B96  0186               	clrf	6	;volatile
 10197  1B97                     l3265:	
 10198                           
 10199                           ;main.c: 31:     TRISD = 0;
 10200  1B97  1683               	bsf	3,5	;RP0=1, select bank1
 10201  1B98  1303               	bcf	3,6	;RP1=0, select bank1
 10202  1B99  0188               	clrf	8	;volatile
 10203  1B9A                     l29:	
 10204  1B9A  0008               	return
 10205  1B9B                     __end_of_Pin_Init:	
 10206                           
 10207                           	psect	text27
 10208  1B64                     __ptext27:	
 10209 ;; *************** function _Initialize_Bluetooth *****************
 10210 ;; Defined at:
 10211 ;;		line 3 in file "bluetooth.c"
 10212 ;; Parameters:    Size  Location     Type
 10213 ;;		None
 10214 ;; Auto vars:     Size  Location     Type
 10215 ;;		None
 10216 ;; Return value:  Size  Location     Type
 10217 ;;                  1    wreg      void 
 10218 ;; Registers used:
 10219 ;;		wreg
 10220 ;; Tracked objects:
 10221 ;;		On entry : 0/0
 10222 ;;		On exit  : 0/0
 10223 ;;		Unchanged: 0/0
 10224 ;; Data sizes:     COMMON   BANK0   BANK1   BANK3   BANK2
 10225 ;;      Params:         0       0       0       0       0
 10226 ;;      Locals:         0       0       0       0       0
 10227 ;;      Temps:          0       0       0       0       0
 10228 ;;      Totals:         0       0       0       0       0
 10229 ;;Total ram usage:        0 bytes
 10230 ;; Hardware stack levels used:    1
 10231 ;; This function calls:
 10232 ;;		Nothing
 10233 ;; This function is called by:
 10234 ;;		_main
 10235 ;; This function uses a non-reentrant model
 10236 ;;
 10237                           
 10238                           
 10239                           ;psect for function _Initialize_Bluetooth
 10240  1B64                     _Initialize_Bluetooth:	
 10241  1B64                     l3269:	
 10242                           ;incstack = 0
 10243                           ; Regs used in _Initialize_Bluetooth: [wreg]
 10244                           
 10245                           
 10246                           ;bluetooth.c: 12:     TRISC6=1;
 10247  1B64  1683               	bsf	3,5	;RP0=1, select bank1
 10248  1B65  1303               	bcf	3,6	;RP1=0, select bank1
 10249  1B66  1707               	bsf	7,6	;volatile
 10250                           
 10251                           ;bluetooth.c: 13:     TRISC7=1;
 10252  1B67  1787               	bsf	7,7	;volatile
 10253                           
 10254                           ;bluetooth.c: 18:     BRGH=1;
 10255  1B68  1518               	bsf	24,2	;volatile
 10256  1B69                     l3271:	
 10257                           
 10258                           ;bluetooth.c: 19:     SPBRG =129;
 10259  1B69  3081               	movlw	129
 10260  1B6A  0099               	movwf	25	;volatile
 10261  1B6B                     l3273:	
 10262                           
 10263                           ;bluetooth.c: 29:     SYNC=0;
 10264  1B6B  1218               	bcf	24,4	;volatile
 10265  1B6C                     l3275:	
 10266                           
 10267                           ;bluetooth.c: 30:     SPEN=1;
 10268  1B6C  1283               	bcf	3,5	;RP0=0, select bank0
 10269  1B6D  1303               	bcf	3,6	;RP1=0, select bank0
 10270  1B6E  1798               	bsf	24,7	;volatile
 10271  1B6F                     l3277:	
 10272                           
 10273                           ;bluetooth.c: 39:     RX9=0;
 10274  1B6F  1318               	bcf	24,6	;volatile
 10275  1B70                     l3279:	
 10276                           
 10277                           ;bluetooth.c: 40:     TX9=0;
 10278  1B70  1683               	bsf	3,5	;RP0=1, select bank1
 10279  1B71  1303               	bcf	3,6	;RP1=0, select bank1
 10280  1B72  1318               	bcf	24,6	;volatile
 10281  1B73                     l3281:	
 10282                           
 10283                           ;bluetooth.c: 43:     TXEN=1;
 10284  1B73  1698               	bsf	24,5	;volatile
 10285  1B74                     l3283:	
 10286                           
 10287                           ;bluetooth.c: 44:     CREN=1;
 10288  1B74  1283               	bcf	3,5	;RP0=0, select bank0
 10289  1B75  1303               	bcf	3,6	;RP1=0, select bank0
 10290  1B76  1618               	bsf	24,4	;volatile
 10291  1B77                     l3285:	
 10292                           
 10293                           ;bluetooth.c: 47:     GIE = 1;
 10294  1B77  178B               	bsf	11,7	;volatile
 10295  1B78                     l3287:	
 10296                           
 10297                           ;bluetooth.c: 48:     PEIE= 1;
 10298  1B78  170B               	bsf	11,6	;volatile
 10299  1B79                     l3289:	
 10300                           
 10301                           ;bluetooth.c: 51:     RCIE=1;
 10302  1B79  1683               	bsf	3,5	;RP0=1, select bank1
 10303  1B7A  1303               	bcf	3,6	;RP1=0, select bank1
 10304  1B7B  168C               	bsf	12,5	;volatile
 10305  1B7C                     l3291:	
 10306                           
 10307                           ;bluetooth.c: 52:     TXIE=1;
 10308  1B7C  160C               	bsf	12,4	;volatile
 10309  1B7D                     l112:	
 10310  1B7D  0008               	return
 10311  1B7E                     __end_of_Initialize_Bluetooth:	
 10312                           
 10313                           	psect	text28
 10314  1B4C                     __ptext28:	
 10315 ;; *************** function _Init_ADC *****************
 10316 ;; Defined at:
 10317 ;;		line 9 in file "adc.c"
 10318 ;; Parameters:    Size  Location     Type
 10319 ;;		None
 10320 ;; Auto vars:     Size  Location     Type
 10321 ;;		None
 10322 ;; Return value:  Size  Location     Type
 10323 ;;                  1    wreg      void 
 10324 ;; Registers used:
 10325 ;;		None
 10326 ;; Tracked objects:
 10327 ;;		On entry : 0/0
 10328 ;;		On exit  : 0/0
 10329 ;;		Unchanged: 0/0
 10330 ;; Data sizes:     COMMON   BANK0   BANK1   BANK3   BANK2
 10331 ;;      Params:         0       0       0       0       0
 10332 ;;      Locals:         0       0       0       0       0
 10333 ;;      Temps:          0       0       0       0       0
 10334 ;;      Totals:         0       0       0       0       0
 10335 ;;Total ram usage:        0 bytes
 10336 ;; Hardware stack levels used:    1
 10337 ;; This function calls:
 10338 ;;		Nothing
 10339 ;; This function is called by:
 10340 ;;		_main
 10341 ;; This function uses a non-reentrant model
 10342 ;;
 10343                           
 10344                           
 10345                           ;psect for function _Init_ADC
 10346  1B4C                     _Init_ADC:	
 10347  1B4C                     l3267:	
 10348                           ;incstack = 0
 10349                           ; Regs used in _Init_ADC: []
 10350                           
 10351                           
 10352                           ;adc.c: 13:     ADCON0bits.ADCS0 = 0;
 10353  1B4C  1283               	bcf	3,5	;RP0=0, select bank0
 10354  1B4D  1303               	bcf	3,6	;RP1=0, select bank0
 10355  1B4E  131F               	bcf	31,6	;volatile
 10356                           
 10357                           ;adc.c: 14:     ADCON0bits.ADCS1 = 1;
 10358  1B4F  179F               	bsf	31,7	;volatile
 10359                           
 10360                           ;adc.c: 15:     ADCON1bits.ADCS2 = 1;
 10361  1B50  1683               	bsf	3,5	;RP0=1, select bank1
 10362  1B51  1303               	bcf	3,6	;RP1=0, select bank1
 10363  1B52  171F               	bsf	31,6	;volatile
 10364                           
 10365                           ;adc.c: 18:     ADCON0bits.CHS0=0;
 10366  1B53  1283               	bcf	3,5	;RP0=0, select bank0
 10367  1B54  1303               	bcf	3,6	;RP1=0, select bank0
 10368  1B55  119F               	bcf	31,3	;volatile
 10369                           
 10370                           ;adc.c: 19:     ADCON0bits.CHS1=0;
 10371  1B56  121F               	bcf	31,4	;volatile
 10372                           
 10373                           ;adc.c: 20:     ADCON0bits.CHS2=0;
 10374  1B57  129F               	bcf	31,5	;volatile
 10375                           
 10376                           ;adc.c: 23:     ADCON1bits.ADFM = 1;
 10377  1B58  1683               	bsf	3,5	;RP0=1, select bank1
 10378  1B59  1303               	bcf	3,6	;RP1=0, select bank1
 10379  1B5A  179F               	bsf	31,7	;volatile
 10380                           
 10381                           ;adc.c: 26:     ADCON1bits.PCFG0 = 0;
 10382  1B5B  101F               	bcf	31,0	;volatile
 10383                           
 10384                           ;adc.c: 27:     ADCON1bits.PCFG1 = 0;
 10385  1B5C  109F               	bcf	31,1	;volatile
 10386                           
 10387                           ;adc.c: 28:     ADCON1bits.PCFG2 = 0;
 10388  1B5D  111F               	bcf	31,2	;volatile
 10389                           
 10390                           ;adc.c: 29:     ADCON1bits.PCFG3 = 0;
 10391  1B5E  119F               	bcf	31,3	;volatile
 10392                           
 10393                           ;adc.c: 31:     ADCON0bits.GO_DONE = 1;
 10394  1B5F  1283               	bcf	3,5	;RP0=0, select bank0
 10395  1B60  1303               	bcf	3,6	;RP1=0, select bank0
 10396  1B61  151F               	bsf	31,2	;volatile
 10397                           
 10398                           ;adc.c: 32:     ADCON0bits.ADON = 1;
 10399  1B62  141F               	bsf	31,0	;volatile
 10400  1B63                     l66:	
 10401  1B63  0008               	return
 10402  1B64                     __end_of_Init_ADC:	
 10403                           
 10404                           	psect	text29
 10405  1BC0                     __ptext29:	
 10406 ;; *************** function _BT_load_string *****************
 10407 ;; Defined at:
 10408 ;;		line 62 in file "bluetooth.c"
 10409 ;; Parameters:    Size  Location     Type
 10410 ;;  string          2    1[COMMON] PTR unsigned char 
 10411 ;;		 -> main@mess(20), STR_1(32), 
 10412 ;; Auto vars:     Size  Location     Type
 10413 ;;		None
 10414 ;; Return value:  Size  Location     Type
 10415 ;;                  1    wreg      void 
 10416 ;; Registers used:
 10417 ;;		wreg, fsr0l, fsr0h, status,2, status,0, btemp+1, pclath, cstack
 10418 ;; Tracked objects:
 10419 ;;		On entry : 0/0
 10420 ;;		On exit  : 0/0
 10421 ;;		Unchanged: 0/0
 10422 ;; Data sizes:     COMMON   BANK0   BANK1   BANK3   BANK2
 10423 ;;      Params:         2       0       0       0       0
 10424 ;;      Locals:         0       0       0       0       0
 10425 ;;      Temps:          0       0       0       0       0
 10426 ;;      Totals:         2       0       0       0       0
 10427 ;;Total ram usage:        2 bytes
 10428 ;; Hardware stack levels used:    1
 10429 ;; Hardware stack levels required when called:    1
 10430 ;; This function calls:
 10431 ;;		_BT_load_char
 10432 ;; This function is called by:
 10433 ;;		_main
 10434 ;; This function uses a non-reentrant model
 10435 ;;
 10436                           
 10437                           
 10438                           ;psect for function _BT_load_string
 10439  1BC0                     _BT_load_string:	
 10440  1BC0                     l3293:	
 10441                           ;incstack = 0
 10442                           ; Regs used in _BT_load_string: [wreg-fsr0h+status,2+status,0+btemp+1+pclath+cstack]
 10443                           
 10444                           
 10445                           ;bluetooth.c: 62: void BT_load_string(char* string);bluetooth.c: 63: {;bluetooth.c: 64: 
      +                              while(*string) BT_load_char(*string++);
 10446  1BC0  2BD5               	goto	l3299
 10447  1BC1                     l3295:	
 10448  1BC1  0872               	movf	BT_load_string@string+1,w
 10449  1BC2  00FF               	movwf	btemp+1
 10450  1BC3  0871               	movf	BT_load_string@string,w
 10451  1BC4  0084               	movwf	4
 10452  1BC5  120A  158A  2000  160A  158A  	fcall	stringtab
 10453  1BCA  160A  158A  2326  160A  158A  	fcall	_BT_load_char
 10454  1BCF                     l3297:	
 10455  1BCF  3001               	movlw	1
 10456  1BD0  07F1               	addwf	BT_load_string@string,f
 10457  1BD1  1803               	skipnc
 10458  1BD2  0AF2               	incf	BT_load_string@string+1,f
 10459  1BD3  3000               	movlw	0
 10460  1BD4  07F2               	addwf	BT_load_string@string+1,f
 10461  1BD5                     l3299:	
 10462  1BD5  0872               	movf	BT_load_string@string+1,w
 10463  1BD6  1283               	bcf	3,5	;RP0=0, select bank0
 10464  1BD7  1303               	bcf	3,6	;RP1=0, select bank0
 10465  1BD8  00FF               	movwf	btemp+1
 10466  1BD9  0871               	movf	BT_load_string@string,w
 10467  1BDA  0084               	movwf	4
 10468  1BDB  120A  158A  2000  160A  158A  	fcall	stringtab
 10469  1BE0  3A00               	xorlw	0
 10470  1BE1  1D03               	skipz
 10471  1BE2  2BE4               	goto	u5631
 10472  1BE3  2BE5               	goto	u5630
 10473  1BE4                     u5631:	
 10474  1BE4  2BC1               	goto	l3295
 10475  1BE5                     u5630:	
 10476  1BE5                     l127:	
 10477  1BE5  0008               	return
 10478  1BE6                     __end_of_BT_load_string:	
 10479                           
 10480                           	psect	text30
 10481  1B26                     __ptext30:	
 10482 ;; *************** function _BT_load_char *****************
 10483 ;; Defined at:
 10484 ;;		line 55 in file "bluetooth.c"
 10485 ;; Parameters:    Size  Location     Type
 10486 ;;  byte            1    wreg     unsigned char 
 10487 ;; Auto vars:     Size  Location     Type
 10488 ;;  byte            1    0[COMMON] unsigned char 
 10489 ;; Return value:  Size  Location     Type
 10490 ;;                  1    wreg      void 
 10491 ;; Registers used:
 10492 ;;		wreg
 10493 ;; Tracked objects:
 10494 ;;		On entry : 0/0
 10495 ;;		On exit  : 0/0
 10496 ;;		Unchanged: 0/0
 10497 ;; Data sizes:     COMMON   BANK0   BANK1   BANK3   BANK2
 10498 ;;      Params:         0       0       0       0       0
 10499 ;;      Locals:         1       0       0       0       0
 10500 ;;      Temps:          0       0       0       0       0
 10501 ;;      Totals:         1       0       0       0       0
 10502 ;;Total ram usage:        1 bytes
 10503 ;; Hardware stack levels used:    1
 10504 ;; This function calls:
 10505 ;;		Nothing
 10506 ;; This function is called by:
 10507 ;;		_BT_load_string
 10508 ;; This function uses a non-reentrant model
 10509 ;;
 10510                           
 10511                           
 10512                           ;psect for function _BT_load_char
 10513  1B26                     _BT_load_char:	
 10514                           
 10515                           ;incstack = 0
 10516                           ; Regs used in _BT_load_char: [wreg]
 10517                           ;BT_load_char@byte stored from wreg
 10518  1B26  00F0               	movwf	BT_load_char@byte
 10519  1B27                     l2751:	
 10520  1B27                     l115:	
 10521                           ;bluetooth.c: 55: void BT_load_char(char byte);bluetooth.c: 56: {;bluetooth.c: 57:     w
      +                          hile(TXIF==0);
 10522                           
 10523  1B27  1283               	bcf	3,5	;RP0=0, select bank0
 10524  1B28  1303               	bcf	3,6	;RP1=0, select bank0
 10525  1B29  1E0C               	btfss	12,4	;volatile
 10526  1B2A  2B2C               	goto	u4261
 10527  1B2B  2B2D               	goto	u4260
 10528  1B2C                     u4261:	
 10529  1B2C  2B27               	goto	l115
 10530  1B2D                     u4260:	
 10531  1B2D                     l118:	
 10532  1B2D  1683               	bsf	3,5	;RP0=1, select bank1
 10533  1B2E  1303               	bcf	3,6	;RP1=0, select bank1
 10534  1B2F  1C98               	btfss	24,1	;volatile
 10535  1B30  2B32               	goto	u4271
 10536  1B31  2B33               	goto	u4270
 10537  1B32                     u4271:	
 10538  1B32  2B2D               	goto	l118
 10539  1B33                     u4270:	
 10540  1B33                     l2753:	
 10541                           
 10542                           ;bluetooth.c: 59:     TXREG = byte;
 10543  1B33  0870               	movf	BT_load_char@byte,w
 10544  1B34  1283               	bcf	3,5	;RP0=0, select bank0
 10545  1B35  1303               	bcf	3,6	;RP1=0, select bank0
 10546  1B36  0099               	movwf	25	;volatile
 10547  1B37                     l121:	
 10548  1B37  0008               	return
 10549  1B38                     __end_of_BT_load_char:	
 10550                           
 10551                           	psect	text31
 10552  1B38                     __ptext31:	
 10553 ;; *************** function _BT_get_char *****************
 10554 ;; Defined at:
 10555 ;;		line 72 in file "bluetooth.c"
 10556 ;; Parameters:    Size  Location     Type
 10557 ;;		None
 10558 ;; Auto vars:     Size  Location     Type
 10559 ;;		None
 10560 ;; Return value:  Size  Location     Type
 10561 ;;                  1    wreg      unsigned char 
 10562 ;; Registers used:
 10563 ;;		wreg
 10564 ;; Tracked objects:
 10565 ;;		On entry : 0/0
 10566 ;;		On exit  : 0/0
 10567 ;;		Unchanged: 0/0
 10568 ;; Data sizes:     COMMON   BANK0   BANK1   BANK3   BANK2
 10569 ;;      Params:         0       0       0       0       0
 10570 ;;      Locals:         0       0       0       0       0
 10571 ;;      Temps:          0       0       0       0       0
 10572 ;;      Totals:         0       0       0       0       0
 10573 ;;Total ram usage:        0 bytes
 10574 ;; Hardware stack levels used:    1
 10575 ;; This function calls:
 10576 ;;		Nothing
 10577 ;; This function is called by:
 10578 ;;		_main
 10579 ;; This function uses a non-reentrant model
 10580 ;;
 10581                           
 10582                           
 10583                           ;psect for function _BT_get_char
 10584  1B38                     _BT_get_char:	
 10585  1B38                     l3303:	
 10586                           ;incstack = 0
 10587                           ; Regs used in _BT_get_char: [wreg]
 10588                           
 10589                           
 10590                           ;bluetooth.c: 74:     if(OERR == 1 )
 10591  1B38  1283               	bcf	3,5	;RP0=0, select bank0
 10592  1B39  1303               	bcf	3,6	;RP1=0, select bank0
 10593  1B3A  1C98               	btfss	24,1	;volatile
 10594  1B3B  2B3D               	goto	u5641
 10595  1B3C  2B3E               	goto	u5640
 10596  1B3D                     u5641:	
 10597  1B3D  2B40               	goto	l133
 10598  1B3E                     u5640:	
 10599  1B3E                     l3305:	
 10600                           
 10601                           ;bluetooth.c: 75:     {;bluetooth.c: 76:         CREN = 0;
 10602  1B3E  1218               	bcf	24,4	;volatile
 10603                           
 10604                           ;bluetooth.c: 77:         CREN = 1;
 10605  1B3F  1618               	bsf	24,4	;volatile
 10606  1B40                     l133:	
 10607                           ;bluetooth.c: 78:     }
 10608                           
 10609                           
 10610                           ;bluetooth.c: 81:     if(RCIF==1)
 10611  1B40  1E8C               	btfss	12,5	;volatile
 10612  1B41  2B43               	goto	u5651
 10613  1B42  2B44               	goto	u5650
 10614  1B43                     u5651:	
 10615  1B43  2B4A               	goto	l3315
 10616  1B44                     u5650:	
 10617  1B44                     l135:	
 10618  1B44  1E8C               	btfss	12,5	;volatile
 10619  1B45  2B47               	goto	u5661
 10620  1B46  2B48               	goto	u5660
 10621  1B47                     u5661:	
 10622  1B47  2B44               	goto	l135
 10623  1B48                     u5660:	
 10624  1B48                     l3309:	
 10625                           
 10626                           ;bluetooth.c: 84:     return RCREG;
 10627  1B48  081A               	movf	26,w	;volatile
 10628  1B49  2B4B               	goto	l138
 10629  1B4A                     l3315:	
 10630                           
 10631                           ;bluetooth.c: 87:         return 0;
 10632  1B4A  3000               	movlw	0
 10633  1B4B                     l138:	
 10634  1B4B  0008               	return
 10635  1B4C                     __end_of_BT_get_char:	
 10636  007E                     btemp	set	126	;btemp
 10637  007E                     wtemp0	set	126


Data Sizes:
    Strings     37
    Constant    144
    Data        0
    BSS         0
    Persistent  0
    Stack       0

Auto Spaces:
    Space          Size  Autos    Used
    COMMON           14     14      14
    BANK0            80     79      79
    BANK1            80     80      80
    BANK3            96      0       0
    BANK2            96      0       0

Pointer List with Targets:

    sprintf@f	PTR const unsigned char  size(1) Largest target is 5
		 -> STR_2(CODE[5]), 

    sprintf@sp	PTR unsigned char  size(1) Largest target is 20
		 -> main@mess(BANK1[20]), 

    sprintf@ap	PTR void [1] size(1) Largest target is 2
		 -> ?_sprintf(BANK1[2]), 

    BT_load_string@string	PTR unsigned char  size(2) Largest target is 32
		 -> main@mess(BANK1[20]), STR_1(CODE[32]), 


Critical Paths under _main in COMMON

    _sprintf->___lldiv
    _sprintf->___xxtofl
    ___awdiv->___awmod
    _fround->___lwdiv
    ___lwdiv->___lwmod
    ___flsub->___xxtofl
    _read_ADC->___xxtofl
    ___flmul->___lwdiv
    _BT_load_string->_BT_load_char

Critical Paths under _main in BANK0

    _sprintf->___fladd
    _scale->___flmul
    _fround->___flmul
    ___fltol->_scale
    ___flsub->___fladd
    ___fladd->_fround
    _read_ADC->___flmul
    ___flmul->___fldiv

Critical Paths under _main in BANK1

    _main->_sprintf
    _sprintf->___flsub

Critical Paths under _main in BANK3

    None.

Critical Paths under _main in BANK2

    None.

Call Graph Tables:

 ---------------------------------------------------------------------------------
 (Depth) Function   	        Calls       Base Space   Used Autos Params    Refs
 ---------------------------------------------------------------------------------
 (0) _main                                                37    37      0   38949
                                             43 BANK1     37    37      0
                        _BT_get_char
                     _BT_load_string
                           _Init_ADC
               _Initialize_Bluetooth
                           _Pin_Init
                             ___flge
                       _broadcast_BT
                           _read_ADC
                            _sprintf
 ---------------------------------------------------------------------------------
 (1) _sprintf                                             42    37      5   31106
                                              8 BANK1     35    30      5
                            ___awdiv
                            ___fladd
                             ___fleq
                             ___flge
                            ___flmul
                            ___flneg
                            ___flsub
                            ___fltol
                            ___lldiv
                            ___llmod
                             ___wmul
                           ___xxtofl
                         __div_to_l_
                        __tdiv_to_l_
                             _fround
                            _isdigit
                              _scale
 ---------------------------------------------------------------------------------
 (2) _scale                                               19    15      4    7560
                                             39 BANK0     19    15      4
                            ___awdiv
                            ___awmod
                            ___flmul
 ---------------------------------------------------------------------------------
 (3) ___awmod                                              7     3      4    1208
                                              0 COMMON     7     3      4
 ---------------------------------------------------------------------------------
 (3) ___awdiv                                              9     5      4    1364
                                              7 COMMON     5     1      4
                                              0 BANK0      4     4      0
                            ___awmod (ARG)
 ---------------------------------------------------------------------------------
 (2) _isdigit                                              2     2      0      68
                                              0 COMMON     2     2      0
 ---------------------------------------------------------------------------------
 (2) _fround                                              20    16      4    6023
                                             39 BANK0     20    16      4
                            ___flmul
                            ___lwdiv
                            ___lwmod
 ---------------------------------------------------------------------------------
 (3) ___lwmod                                              6     2      4     615
                                              0 COMMON     6     2      4
 ---------------------------------------------------------------------------------
 (3) ___lwdiv                                              8     4      4     618
                                              6 COMMON     8     4      4
                            ___lwmod (ARG)
 ---------------------------------------------------------------------------------
 (2) __tdiv_to_l_                                         18    10      8     455
                                              0 COMMON    12     4      8
                                              0 BANK0      6     6      0
 ---------------------------------------------------------------------------------
 (2) __div_to_l_                                          15     7      8     455
                                              0 COMMON     9     1      8
                                              0 BANK0      6     6      0
 ---------------------------------------------------------------------------------
 (2) ___wmul                                               6     2      4     396
                                              0 COMMON     6     2      4
 ---------------------------------------------------------------------------------
 (2) ___llmod                                             10     2      8     615
                                              0 COMMON    10     2      8
 ---------------------------------------------------------------------------------
 (2) ___lldiv                                             14     6      8     466
                                              0 COMMON    14     6      8
 ---------------------------------------------------------------------------------
 (2) ___fltol                                             11     7      4     457
                                             58 BANK0     11     7      4
                            ___flmul (ARG)
                              _scale (ARG)
 ---------------------------------------------------------------------------------
 (2) ___flsub                                              8     0      8    2485
                                              0 BANK1      8     0      8
                            ___fladd
                           ___xxtofl (ARG)
 ---------------------------------------------------------------------------------
 (3) ___fladd                                             20    12      8    2288
                                             59 BANK0     20    12      8
                             _fround (ARG)
 ---------------------------------------------------------------------------------
 (2) ___flneg                                              4     0      4     121
                                              0 COMMON     4     0      4
 ---------------------------------------------------------------------------------
 (2) ___flge                                              12     4      8     942
                                              0 COMMON    12     4      8
 ---------------------------------------------------------------------------------
 (2) ___fleq                                              12     4      8     394
                                              0 COMMON    12     4      8
 ---------------------------------------------------------------------------------
 (1) _read_ADC                                            10     6      4    6339
                                             39 BANK0     10     6      4
                            ___fldiv
                            ___flmul
                           ___xxtofl
 ---------------------------------------------------------------------------------
 (2) ___xxtofl                                            14    10      4     474
                                              0 COMMON    14    10      4
 ---------------------------------------------------------------------------------
 (3) ___flmul                                             26    18      8    4545
                                             13 BANK0     26    18      8
                          __Umul8_16
                            ___awdiv (ARG)
                            ___awmod (ARG)
                            ___fldiv (ARG)
                            ___lwdiv (ARG)
                            ___lwmod (ARG)
 ---------------------------------------------------------------------------------
 (4) __Umul8_16                                            9     7      2     799
                                              0 COMMON     9     7      2
 ---------------------------------------------------------------------------------
 (2) ___fldiv                                             26    18      8    1273
                                              0 COMMON    13     5      8
                                              0 BANK0     13    13      0
 ---------------------------------------------------------------------------------
 (1) _broadcast_BT                                         0     0      0       0
 ---------------------------------------------------------------------------------
 (1) _Pin_Init                                             3     3      0       0
                                              0 COMMON     3     3      0
 ---------------------------------------------------------------------------------
 (1) _Initialize_Bluetooth                                 0     0      0       0
 ---------------------------------------------------------------------------------
 (1) _Init_ADC                                             0     0      0       0
 ---------------------------------------------------------------------------------
 (1) _BT_load_string                                       2     0      2     219
                                              1 COMMON     2     0      2
                       _BT_load_char
 ---------------------------------------------------------------------------------
 (2) _BT_load_char                                         1     1      0      22
                                              0 COMMON     1     1      0
 ---------------------------------------------------------------------------------
 (1) _BT_get_char                                          0     0      0       0
 ---------------------------------------------------------------------------------
 Estimated maximum stack depth 4
 ---------------------------------------------------------------------------------

 Call Graph Graphs:

 _main (ROOT)
   _BT_get_char
   _BT_load_string
     _BT_load_char
   _Init_ADC
   _Initialize_Bluetooth
   _Pin_Init
   ___flge
   _broadcast_BT
   _read_ADC
     ___fldiv
     ___flmul
       __Umul8_16
       ___awdiv (ARG)
         ___awmod (ARG)
       ___awmod (ARG)
       ___fldiv (ARG)
       ___lwdiv (ARG)
         ___lwmod (ARG)
       ___lwmod (ARG)
     ___xxtofl
   _sprintf
     ___awdiv
       ___awmod (ARG)
     ___fladd
       _fround (ARG)
         ___flmul
           __Umul8_16
           ___awdiv (ARG)
             ___awmod (ARG)
           ___awmod (ARG)
           ___fldiv (ARG)
           ___lwdiv (ARG)
             ___lwmod (ARG)
           ___lwmod (ARG)
         ___lwdiv
           ___lwmod (ARG)
         ___lwmod
     ___fleq
     ___flge
     ___flmul
       __Umul8_16
       ___awdiv (ARG)
         ___awmod (ARG)
       ___awmod (ARG)
       ___fldiv (ARG)
       ___lwdiv (ARG)
         ___lwmod (ARG)
       ___lwmod (ARG)
     ___flneg
     ___flsub
       ___fladd
         _fround (ARG)
           ___flmul
             __Umul8_16
             ___awdiv (ARG)
               ___awmod (ARG)
             ___awmod (ARG)
             ___fldiv (ARG)
             ___lwdiv (ARG)
               ___lwmod (ARG)
             ___lwmod (ARG)
           ___lwdiv
             ___lwmod (ARG)
           ___lwmod
       ___xxtofl (ARG)
     ___fltol
       ___flmul (ARG)
         __Umul8_16
         ___awdiv (ARG)
           ___awmod (ARG)
         ___awmod (ARG)
         ___fldiv (ARG)
         ___lwdiv (ARG)
           ___lwmod (ARG)
         ___lwmod (ARG)
       _scale (ARG)
         ___awdiv
           ___awmod (ARG)
         ___awmod
         ___flmul
           __Umul8_16
           ___awdiv (ARG)
             ___awmod (ARG)
           ___awmod (ARG)
           ___fldiv (ARG)
           ___lwdiv (ARG)
             ___lwmod (ARG)
           ___lwmod (ARG)
     ___lldiv
     ___llmod
     ___wmul
     ___xxtofl
     __div_to_l_
     __tdiv_to_l_
     _fround
       ___flmul
         __Umul8_16
         ___awdiv (ARG)
           ___awmod (ARG)
         ___awmod (ARG)
         ___fldiv (ARG)
         ___lwdiv (ARG)
           ___lwmod (ARG)
         ___lwmod (ARG)
       ___lwdiv
         ___lwmod (ARG)
       ___lwmod
     _isdigit
     _scale
       ___awdiv
         ___awmod (ARG)
       ___awmod
       ___flmul
         __Umul8_16
         ___awdiv (ARG)
           ___awmod (ARG)
         ___awmod (ARG)
         ___fldiv (ARG)
         ___lwdiv (ARG)
           ___lwmod (ARG)
         ___lwmod (ARG)

 Address spaces:
Name               Size   Autos  Total    Cost      Usage
BITCOMMON            E      0       0       0        0.0%
EEDATA             100      0       0       0        0.0%
NULL                 0      0       0       0        0.0%
CODE                 0      0       0       0        0.0%
COMMON               E      E       E       1      100.0%
BITSFR0              0      0       0       1        0.0%
SFR0                 0      0       0       1        0.0%
BITSFR1              0      0       0       2        0.0%
SFR1                 0      0       0       2        0.0%
STACK                0      0       0       2        0.0%
ABS                  0      0       0       3        0.0%
BITBANK0            50      0       0       4        0.0%
BITSFR3              0      0       0       4        0.0%
SFR3                 0      0       0       4        0.0%
BANK0               50     4F      4F       5       98.8%
BITSFR2              0      0       0       5        0.0%
SFR2                 0      0       0       5        0.0%
BITBANK1            50      0       0       6        0.0%
BANK1               50     50      50       7      100.0%
BITBANK3            60      0       0       8        0.0%
BANK3               60      0       0       9        0.0%
BITBANK2            60      0       0      10        0.0%
BANK2               60      0       0      11        0.0%
DATA                 0      0       0      12        0.0%


Microchip Technology PIC Macro Assembler V2.10 build 88905656 
Symbol Table                                                                                   Mon Dec 23 22:55:14 2019

                 ___fldiv@aexp 002C                   ___fldiv@bexp 002B                              pc 0002  
                 ___fldiv@sign 0024                    __CFG_CP$OFF 0000                             l29 1B9A  
                           l66 1B63                             l69 1EA3                   ___awdiv@sign 0021  
                           fsr 0004            ___wmul@multiplicand 0072            __Umul8_16@word_mpld 0076  
                          l112 1B7D                            l121 1B37                            l130 100E  
                          l115 1B27                            l300 064D                            l133 1B40  
                          l118 1B2D                            l135 1B44                            l127 1BE5  
                          l320 1BBF                            l241 1577                            l138 1B4B  
                          l314 07FB                            l308 07B4                            l318 1BA7  
                          l504 1CA7                            l512 1F2C                            l248 0C9E  
                          l505 1CC3                            l513 1F45                            l521 008A  
                          l506 1CD8                            l354 1E3B                            l531 008A  
                          l267 0233                            l701 11E6                            l509 1EC0  
                          l517 000E                            l293 0609                            l703 136C  
                          l535 10CB                            l471 093F                            l528 0075  
                          l536 103D                            l624 1C8A                            l546 10BE  
                          l634 1C46                            l723 1350                            l651 1659  
                          l539 108E                            l492 114C                            l484 1DD5  
                          l725 1360                            l717 12DE                            l741 0FFF  
                          l645 15DB                            l670 1771                            l574 1D7C  
                          l807 1BFA                            l488 1189                            l809 1C0C  
                          l753 0FF3                            l649 1682                            l489 10EE  
                          l666 174D                            l658 17FF                            l747 0F6B  
                          l691 1D28                            l499 117C                            l676 1793  
                          l781 1FFF                            l687 17F3                            l679 17D1  
                          l792 1FC9                            l688 17FF                            l793 1FD5  
                          l785 1FAD                            l779 1F68                            l799 08D6  
                          _GIE 005F                   __CFG_CPD$OFF 0000                            _RX9 00C6  
                          _TX9 04C6                            fsr0 0004                            indf 0000  
                 ___awmod@sign 0076                   __CFG_FOSC$HS 0000                   ___flmul@aexp 003F  
                 ___flmul@bexp 0040                    _sprintf$918 00B2                   ___flmul@sign 003A  
                 ___flmul@temp 0045                   ___flmul@prod 0041                   __CFG_LVP$OFF 0000  
                 ___fltol@exp1 0064                           l3001 000C                           l3003 000E  
                         l3101 11D3                           l3021 0045                           l3013 0025  
                         l2301 08F2                           l3111 11FA                           l3103 11DB  
                         l3023 0049                           l3031 0063                           l3015 003A  
                         l3007 000F                           l2311 0908                           l2303 08F4  
                         l3201 1356                           l3113 11FE                           l3105 11DC  
                         l3041 007F                           l3017 003B                           l3009 001C  
                         l2401 1C1D                           l2321 092B                           l2313 090C  
                         l2305 08FA                           l3203 135A                           l3131 123F  
                         l3123 1215                           l3107 11DE                           l3211 1F47  
                         l3019 0043                           l3051 1D45                           l3043 1D29  
                         l2411 1C3C                           l2403 1C21                           l2315 091D  
                         l2307 08FD                           l2323 0931                           l2331 1D7D  
                         l3301 100A                           l3205 135C                           l3141 125D  
                         l3133 1241                           l3125 1227                           l3109 11EE  
                         l3117 1207                           l3213 1F4C                           l2501 165D  
                         l2421 1585                           l3037 006A                           l3029 0051  
                         l3053 1D57                           l3045 1D31                           l2405 1C25  
                         l2413 1C42                           l2325 0936                           l2317 0923  
                         l2309 0904                           l2341 1D8D                           l2333 1D7E  
                         l3303 1B38                           l3135 1246                           l3143 1266  
                         l3151 1291                           l3127 122F                           l3119 120C  
                         l3071 1191                           l3231 1F96                           l3223 1F79  
                         l3215 1F50                           l2511 1676                           l2503 1666  
                         l2431 159C                           l2423 1589                           l3063 1CD9  
                         l3039 007A                           l3055 1D65                           l3047 1D34  
                         l2407 1C2F                           l2327 093B                           l2319 0924  
                         l2351 1DA6                           l2343 1D92                           l2335 1D82  
                         l3305 1B3E                           l3161 12AE                           l3153 1297  
                         l3145 1278                           l3137 1258                           l3129 1237  
                         l3081 11A6                           l3073 1197                           l2281 1C03  
                         l2273 1BE7                           l3241 1FCD                           l3233 1FA4  
                         l3225 1F7E                           l3217 1F60                           l3321 1E3C  
                         l2601 17E9                           l2521 1694                           l2505 1668  
                         l2513 167A                           l2441 15B2                           l2433 159D  
                         l2425 158A                           l2417 1578                           l3065 1CDD  
                         l3057 1D6E                           l3049 1D41                           l2409 1C35  
                         l2353 1DAA                           l2345 1D98                           l2361 1DC7  
                         l2337 1D87                           l3401 0397                           l3315 1B4A  
                         l3171 12C3                           l3163 12AF                           l3155 129F  
                         l3147 1279                           l3139 125C                           l3091 11BE  
                         l3083 11AE                           l3075 119B                           l2283 1C08  
                         l2275 1BE9                           l2611 0C9F                           l3251 1FF7  
                         l3243 1FD7                           l3235 1FB4                           l3227 1F8B  
                         l3219 1F70                           l3323 1E65                           l2603 17ED  
                         l2531 16BE                           l2523 16AB                           l2515 1686  
                         l2507 166C                           l2451 15C3                           l2443 15B3  
                         l2427 158F                           l2435 159F                           l2419 157F  
                         l3059 1D74                           l2371 1C49                           l2291 08DE  
                         l2363 1DCC                           l2355 1DB4                           l2347 1D9B  
                         l2339 1D89                           l3411 041F                           l3403 03B2  
                         l3331 01D0                           l3309 1B48                           l3261 1B87  
                         l3181 12E8                           l3173 12C7                           l3165 12B8  
                         l3157 12A1                           l3149 128D                           l3093 11C4  
                         l3085 11AF                           l3077 119C                           l3069 118A  
                         l2277 1BF0                           l2701 0F3B                           l2621 0CB6  
                         l2613 0CA6                           l3245 1FED                           l3237 1FBF  
                         l3229 1F92                           l2605 17EF                           l2541 16E7  
                         l2533 16C2                           l2525 16AF                           l2517 168B  
                         l2509 166D                           l2461 15E1                           l2453 15C8  
                         l2445 15B9                           l2437 15A7                           l2429 1594  
                         l2381 1C61                           l2373 1C4F                           l2293 08E3  
                         l2365 1DD1                           l2357 1DBA                           l2349 1DA2  
                         l3501 0799                           l3421 0494                           l3413 043A  
                         l3405 03BA                           l3341 01EB                           l3333 01D7  
                         l3271 1B69                           l3263 1B94                           l3255 1B7E  
                         l3191 1326                           l3183 12F6                           l3175 12DB  
                         l3159 12AA                           l3167 12BE                           l3095 11C8  
                         l3079 11A1                           l3087 11B1                           l2279 1BF4  
                         l2711 0F50                           l2703 0F3C                           l2631 0CD2  
                         l2623 0CBB                           l2615 0CAC                           l3247 1FF2  
                         l3239 1FC3                           l3319 1E3C                           l2607 17FA  
                         l2551 1755                           l2543 1725                           l2535 16C3  
                         l2527 16B3                           l2471 15F5                           l2463 15E5  
                         l2455 15D0                           l2447 15BD                           l2439 15AC  
                         l2383 1C72                           l2375 1C52                           l2391 1C86  
                         l2295 08E5                           l2287 08D7                           l2359 1DC1  
                         l3511 07C0                           l3423 049C                           l3415 0461  
                         l3431 04E2                           l3407 03C9                           l3503 07A0  
                         l3351 021E                           l3343 01EF                           l3335 01DC  
                         l3327 01C5                           l3281 1B73                           l3273 1B6B  
                         l3265 1B97                           l3257 1B82                           l3193 1334  
                         l3185 12FA                           l3169 12C2                           l3097 11C9  
                         l3089 11B9                           l2721 0F75                           l2713 0F54  
                         l2705 0F45                           l2641 0CE7                           l2633 0CD8  
                         l2625 0CC3                           l2617 0CB0                           l3249 1FF6  
                         l2609 17FE                           l2561 1770                           l2553 175A  
                         l2545 172B                           l2537 16CC                           l2529 16BC  
                         l2481 1609                           l2473 15F9                           l2465 15E9  
                         l2457 15D1                           l2449 15BE                           l2385 1C78  
                         l2377 1C59                           l2369 1C47                           l2297 08E9  
                         l2289 08DA                           l3513 07CF                           l3505 07A6  
                         l3433 0517                           l3425 04BA                           l3417 0470  
                         l3409 0410                           l3361 0251                           l3345 01F2  
                         l3353 022F                           l3337 01DE                           l3329 01CA  
                         l3521 07E5                           l3601 0176                           l3267 1B4C  
                         l3291 1B7C                           l3283 1B74                           l3275 1B6C  
                         l3259 1B83                           l3195 1343                           l3187 1313  
                         l3179 12E3                           l3099 11CE                           l2731 0FB3  
                         l2723 0F83                           l2715 0F68                           l2707 0F4B  
                         l2651 0D03                           l2643 0CEF                           l2635 0CDC  
                         l2627 0CC5                           l2619 0CB1                           l2563 1775  
                         l2571 1781                           l2547 1730                           l2539 16D1  
                         l2491 161D                           l2483 160D                           l2475 15FD  
                         l2467 15ED                           l2459 15D3                           l2387 1C79  
                         l2379 1C5D                           l2395 1C0D                           l2299 08EE  
                         l2803 0BE3                           l3515 07CF                           l3507 07AE  
                         l3451 0597                           l3443 054A                           l3435 0546  
                         l3419 048B                           l3371 0277                           l3363 025D  
                         l3523 07F7                           l3355 0231                           l3347 0207  
                         l3339 01EA                           l3611 01B0                           l3603 017A  
                         l3293 1BC0                           l3285 1B77                           l3277 1B6F  
                         l3269 1B64                           l3197 1347                           l3189 1319  
                         l2741 0FE7                           l2733 0FBE                           l2725 0F87  
                         l2709 0F4F                           l2661 0D46                           l2645 0CF1  
                         l2637 0CDD                           l2629 0CCD                           l2565 1778  
                         l2557 1763                           l2549 173F                           l2573 1785  
                         l2493 1621                           l2485 1611                           l2477 1601  
                         l2469 15F1                           l2901 112E                           l2389 1C80  
                         l2397 1C13                           l2821 08D5                           l2813 08C6  
                         l2805 0BEA                           l3517 07DD                           l3509 07BF  
                         l3461 0611                           l3453 059E                           l3437 0548  
                         l3429 04D9                           l3381 02CA                           l3373 0290  
                         l3365 0261                           l3349 021A                           l3605 0188  
                         l3541 009A                           l3533 008B                           l2751 1B27  
                         l3295 1BC1                           l3287 1B78                           l3279 1B70  
                         l3199 134F                           l2743 0FEB                           l2735 0FCD  
                         l2727 0FA0                           l2719 0F70                           l2671 0DCF  
                         l2663 0D62                           l2655 0D0C                           l2647 0CF9  
                         l2639 0CE2                           l2591 17CD                           l2583 1798  
                         l2575 1786                           l2567 177A                           l2559 176C  
                         l2487 1615                           l2479 1605                           l2495 1625  
                         l2903 113C                           l2831 102B                           l2399 1C16  
                         l2815 08C7                           l3471 0640                           l3463 061A  
                         l3455 05A3                           l3447 0581                           l3391 0305  
                         l3383 02D5                           l3375 02A9                           l3367 0265  
                         l3359 0235                           l3607 0190                           l3551 00B2  
                         l3543 00A3                           l3535 0090                           l2753 1B33  
                         l3297 1BCF                           l3289 1B79                           l2745 0FEC  
                         l2737 0FD7                           l2729 0FA6                           l2681 0E42  
                         l2673 0DDF                           l2665 0D8E                           l2657 0D1C  
                         l2649 0CFE                           l2593 17D6                           l2585 179D  
                         l2577 178A                           l2569 177F                           l2497 1626  
                         l2489 1619                           l2905 113D                           l2841 1053  
                         l2825 100F                           l2817 08CD                           l2809 0C72  
                         l3481 0666                           l3473 0647                           l3465 061E  
                         l3457 05DE                           l3449 058B                           l3393 030B  
                         l3385 02DB                           l3377 02AD                           l3369 0273  
                         l3609 01AB                           l3561 00CB                           l3553 00B4  
                         l3545 00A8                           l3537 0095                           l3299 1BD5  
                         l2747 0FF7                           l2739 0FD9                           l2691 0EEF  
                         l2683 0E5F                           l2675 0DFC                           l2667 0DAA  
                         l2659 0D29                           l2595 17DB                           l2587 17AB  
                         l2579 1790                           l2499 163D                           l2931 1B9D  
                         l2923 1171                           l2915 1158                           l2907 1146  
                         l2851 107F                           l2843 1055                           l2827 1022  
                         l2763 1483                           l2755 1370                           l2819 08D3  
                         l3491 0745                           l3483 0684                           l3475 0656  
                         l3467 0624                           l3459 05FD                           l3395 032A  
                         l3387 02EE                           l3379 02B1                           l3643 0249  
                         l3571 00EA                           l3563 00D4                           l3555 00B4  
                         l3547 00A8                           l3539 009A                           l2693 0F17  
                         l2685 0E8C                           l2677 0E0C                           l2669 0DC6  
                         l2597 17E3                           l2589 17AF                           l2933 1BA1  
                         l2925 1181                           l2909 1150                           l2917 116A  
                         l2853 1080                           l2845 105E                           l2837 103E  
                         l2765 1489                           l2757 1376                           l2773 0943  
                         l3485 06DF                           l3493 0780                           l3477 065B  
                         l3469 0631                           l3397 0375                           l3389 0301  
                         l3581 0102                           l3573 00EE                           l3565 00D8  
                         l3557 00C1                           l3549 00AE                           l2695 0F20  
                         l2687 0E9C                           l2679 0E29                           l2599 17E8  
                         l2951 1DFA                           l2943 1DD6                           l2935 1BAE  
                         l2871 10B3                           l2863 109A                           l2855 1088  
                         l2847 1067                           l2839 1044                           l2791 0AC7  
                         l2775 0947                           l3495 0788                           l3487 071A  
                         l3479 0662                           l3399 038E                           l3591 0127  
                         l3583 0108                           l3575 00F5                           l3567 00E1  
                         l3559 00C8                           l2697 0F2E                           l2689 0EC9  
                         l2961 1E2D                           l2953 1E03                           l2945 1DE6  
                         l2937 1BB5                           l2929 1B9B                           l2873 10C3  
                         l2857 1092                           l2865 10AC                           l2849 1075  
                         l2769 1534                           l2785 0A38                           l2777 0949  
                         l3497 078F                           l3489 0739                           l3593 0144  
                         l3585 0117                           l3577 00F7                           l3569 00E3  
                         l2699 0F37                           l2971 1CBB                           l2955 1E15  
                         l2947 1DE9                           l2963 1E33                           l2939 1BBB  
                         l2891 10F7                           l2883 10E2                           l2787 0A3F  
                         l2779 0950                           l2795 0AF4                           l3499 0793  
                         l3595 014A                           l3587 011C                           l3579 00FE  
                         l2973 1CD5                           l2981 1EB8                           l2957 1E23  
                         l2949 1DF6                           l2893 1108                           l2877 10CC  
                         l2797 0AFB                           l3597 0163                           l3589 0124  
                         l2975 1CD7                           l2967 1C8B                           l2991 1F08  
                         l2983 1ED4                           l2959 1E24                           l2895 110A  
                         l2879 10D9                           l3599 0172                           l2969 1C9F  
                         l2993 1F42                           l2985 1EDC                           l2897 1113  
                         l2889 10EF                           l2995 1F44                           l2987 1EE0  
                         l2979 1EA4                           l2899 111C                           l2989 1F04  
                         l2999 0004                           STR_1 08A0                           STR_2 08C0  
                         _BRGH 04C2                           _CREN 00C4                           u3100 1C08  
                         u3101 1C07                           u3110 08DE                           u3111 08DD  
                         u3200 0936                           u3120 08E9                           u4001 0DB8  
                         u3201 0935                           u3121 08E8                           u4002 0DBF  
                         u3130 08FA                           u3210 1D82                           u4003 0DC6  
                         u3131 08F9                           u3211 1D81                           u4100 0EFD  
                         u3300 1C4F                           u3220 1D8D                           u4021 0DEE  
                         u3301 1C4E                           u3221 1D8C                           u4022 0DF5  
                         u3150 090C                           u3230 1D98                           u4111 0F09  
                         u4031 0E1B                           u4023 0DFC                           u4015 0DC8  
                         u3151 090B                           u3231 1D97                           u3080 1BF4  
                         u4200 0F75                           u4112 0F10                           u4032 0E22  
                         u3320 1C61                           u3400 1C2F                           u3081 1BF3  
                         u4201 0F74                           u4113 0F17                           u4105 0EF8  
                         u4033 0E29                           u5001 1F17                           u3321 1C60  
                         u3401 1C2E                           u3145 08FE                           u4210 0F87  
                         u5010 1F42                           u5002 1F18                           u3170 091D  
                         u3250 1DAA                           u4211 0F86                           u4051 0E51  
                         u5011 1F41                           u5003 1F1D                           u3315 1C53  
                         u3171 091C                           u3251 1DA9                           u4220 0F96  
                         u4140 0F3B                           u4052 0E58                           u5004 1F1E  
                         u5020 000C                           u3500 15E1                           u3340 1C72  
                         u3420 1C42                           u3260 1DB4                           u4141 0F3A  
                         u4125 0F19                           u4061 0E7E                           u4053 0E5F  
                         u4045 0E2B                           u5005 1F23                           u5021 000B  
                         u3501 15E0                           u3341 1C71                           u3421 1C41  
                         u3405 1C2B                           u3165 090D                           u3261 1DB3  
                         u3245 1D9C                           u4230 0FB3                           u4062 0E85  
                         u5006 1F24                           u3510 15E5                           u3430 1589  
                         u5110 007A                           u5030 001C                           u3190 0931  
                         u3095 1BFB                           u4231 0FB2                           u4135 0F30  
                         u4071 0EAB                           u4063 0E8C                           u5015 1F3E  
                         u3511 15E4                           u3431 1588                           u5111 0079  
                         u5031 001B                           u3335 1C62                           u3415 1C36  
                         u3191 0930                           u3175 0919                           u5200 11A1  
                         u4240 0FCD                           u4160 0F4F                           u4080 0ED5  
                         u4072 0EB2                           u3600 168B                           u3520 163D  
                         u3440 158F                           u5120 007F                           u5040 0033  
                         u3360 1C86                           u4320 1489                           u3280 1DC7  
                         u6000 07DD                           u5201 11A0                           u4241 0FCC  
                         u4225 0F91                           u4161 0F4E                           u4073 0EB9  
                         u3601 168A                           u3521 163C                           u3441 158E  
                         u5121 007E                           u5105 006C                           u3361 1C85  
                         u3345 1C6E                           u4321 1488                           u4305 13ED  
                         u3185 0925                           u3281 1DC6                           u3265 1DB0  
                         u6001 07DC                           u5210 11A6                           u4250 0FEB  
                         u4170 0F54                           u3530 1648                           u3450 1594  
                         u5050 0049                           u5130 1D31                           u3370 1C13  
                         u3290 1DCC                           u4410 0A3F                           u6010 07F7  
                         u5211 11A5                           u4251 0FEA                           u4235 0FAF  
                         u4171 0F53                           u4155 0F3E                           u4091 0EE1  
                         u3611 169D                           u3531 1646                           u3451 1593  
                         u5051 0048                           u5131 1D30                           u3355 1C7A  
                         u3371 1C12                           u4315 1442                           u3291 1DCB  
                         u3275 1DBB                           u4411 0A3E                           u6011 07F6  
                         u4260 1B2D                           u5300 125C                           u5220 11C8  
                         u4180 0F68                           u4092 0EE8                           u3700 1755  
                         u3620 16AF                           u3612 16A4                           u3540 1649  
                         u3460 15B2                           u5060 0050                           u6100 014A  
                         u6020 00C8                           u4261 1B2C                           u5301 125B  
                         u5221 11C7                           u4245 0FC9                           u4181 0F67  
                         u4093 0EEF                           u4085 0ED0                           u3701 1754  
                         u3621 16AE                           u3613 16AB                           u3525 1639  
                         u3461 15B1                           u5061 004F                           u5045 002E  
                         u4405 09F7                           u6101 0149                           u6021 00C7  
                         u4270 1B33                           u5230 11CE                           u4190 0F6F  
                         u3710 175A                           u3630 16B3                           u3550 165D  
                         u3470 15BD                           u5150 1D45                           u3390 1C25  
                         u6110 0163                           u6030 00D4                           u4271 1B32  
                         u5231 11CD                           u4191 0F6E                           u3711 1759  
                         u3631 16B2                           u3551 165C                           u3471 15BC  
                         u5151 1D44                           u3391 1C24                           u4335 14A6  
                         u6111 0162                           u6031 00D3                           u5400 12C7  
                         u5320 1278                           u5240 11D3                           u3800 179D  
                         u3640 16C2                           u3560 166C                           u3480 15C3  
                         u5080 0062                           u5160 1D57                           u4600 108E  
                         u4280 1376                           u4360 0947                           u6120 0172  
                         u6040 00E1                           u5401 12C6                           u5321 1277  
                         u5241 11D2                           u3801 179C                           u3641 16C1  
                         u3561 166B                           u3481 15C2                           u5081 0061  
                         u5161 1D56                           u5145 1D36                           u4601 108D  
                         u3385 1C17                           u4345 14F3                           u4281 1375  
                         u4505 0BFD                           u4425 0A52                           u4361 0946  
                         u6121 0171                           u6041 00E0                           u5410 12DB  
                         u5330 128D                           u5250 11EE                           u3810 17AF  
                         u3730 1770                           u3490 15C8                           u5090 0069  
                         u4610 1092                           u4530 08CD                           u4450 0AFB  
                         u4370 0950                           u6130 0190                           u6050 00EA  
                         u5411 12DA                           u5315 125F                           u5251 11ED  
                         u3811 17AE                           u3731 176F                           u3491 15C7  
                         u5091 0068                           u5075 0052                           u4611 1091  
                         u4355 153F                           u4531 08CC                           u4515 0C39  
                         u4451 0AFA                           u4435 0A8E                           u4371 094F  
                         u6131 018F                           u6051 00E9                           _PEIE 005E  
                         u5420 12E2                           u5340 1297                           u5260 120C  
                         u3900 0CB6                           u5500 1F50                           u3820 17BE  
                         u3740 1775                           u3660 16E7                           u3580 1682  
                         u5180 1D74                           u4620 1099                           u4540 08D3  
                         u6060 00F5                           u5421 12E1                           u5341 1296  
                         u5325 1274                           u5261 120B                           u3901 0CB5  
                         u5501 1F4F                           u3741 1774                           u3725 1765  
                         u3661 16E6                           u3581 1681                           u5181 1D73  
                         u5165 1D53                           u4621 1098                           u4541 08D2  
                         u4525 0C75                           u4445 0ACA                           u6125 016E  
                         u6061 00F4                           u5430 12E8                           u5350 129F  
                         u5270 1246                           u5190 119B                           u3910 0CBB  
                         u5510 1F70                           u3830 17CD                           u3750 177F  
                         u3590 1686                           u4710 112E                           u4550 1022  
                         u6070 00FE                           u5431 12E7                           u5351 129E  
                         u5335 1280                           u5271 1245                           u5191 119A  
                         u3911 0CBA                           u5511 1F6F                           u3831 17CC  
                         u3751 177E                           u3671 16FE                           u3663 16E3  
                         u3655 16C5                           u3591 1685                           u3575 166F  
                         u5175 1D66                           u4711 112D                           u4551 1021  
                         u4295 1393                           u6071 00FD                           u5440 12FA  
                         u5336 1281                           u3920 0CDC                           u5600 1FE2  
                         u3840 17D6                           u3760 1785                           u3680 1712  
                         u3672 16FF                           u4800 1181                           u4640 10AB  
                         u4560 103C                           u6080 0108                           u5441 12F9  
                         u5337 1286                           u3921 0CDB                           u3841 17D5  
                         u3825 17B9                           u3761 1784                           u3681 1713  
                         u3673 1704                           u4801 1180                           u4705 1115  
                         u4641 10AA                           u4561 103B                           u4465 0B1B  
                         u4385 0970                           u6081 0107                           u5450 1309  
                         u5370 12AE                           u5338 1287                           u3930 0CE2  
                         u5610 1FF2                           u5530 1F91                           u3850 17DB  
                         u3770 178A                           u3690 1730                           u3682 1718  
                         u3674 1705                           u4810 1BA1                           u4730 114C  
                         u4650 10B2                           u4490 0BEA                           u6090 0117  
                         u5371 12AD                           u5339 128C                           u3931 0CE1  
                         u5611 1FF1                           u5531 1F90                           u3851 17DA  
                         u3771 1789                           u3691 172F                           u3683 1719  
                         u3675 170A                           u4811 1BA0                           u4731 114B  
                         u4715 112A                           u4651 10B1                           u4635 109B  
                         u4491 0BE9                           u4475 0B57                           u4395 09AC  
                         u6147 0180                           u6091 0116                           _RCIE 0465  
                         u5460 1326                           u3940 0CE7                           u5620 1FF6  
                         u3860 17E8                           u3780 1790                           u3676 170B  
                         u4740 1150                           u4580 1075                           u5700 025D  
                         _RCIF 0065                           u5461 1325                           u5365 12A3  
                         u5285 1248                           u3941 0CE6                           u5621 1FF5  
                         u5605 1FDD                           u5525 1F83                           u3861 17E7  
                         u3781 178F                           u4741 114F                           u4725 113F  
                         u4581 1074                           u4485 0BA2                           u5701 025C  
                         u6157 01B8                           u5630 1BE5                           u5470 1343  
                         u5390 12C2                           u3950 0CFE                           u5550 1FB3  
                         u3870 17ED                           u3790 1797                           u4910 1E33  
                         u4750 1157                           u4670 10C3                           u5710 0261  
                         u5631 1BE4                           u6167 1B8D                           u5471 1342  
                         u5455 1304                           u5391 12C1                           u5295 1251  
                         u3951 0CFD                           u5551 1FB2                           u3871 17EC  
                         u3791 1796                           u4911 1E32                           u4751 1156  
                         u4671 10C2                           u4575 1060                           u5711 0260  
                         u6095 0113                           u5640 1B3E                           u5480 135A  
                         u3960 0D03                           u4920 1C9F                           u3880 17FE  
                         u4840 1BBB                           u4680 10D9                           u5800 0461  
                         u5720 0290                           u5641 1B3D                           u5481 1359  
                         u5465 1322                           u5385 12B1                           u3961 0D02  
                         u5545 1FA5                           u4921 1C9E                           u3881 17FD  
                         u4905 1E25                           u4841 1BBA                           u4825 1BA8  
                         u4681 10D8                           u4665 10B5                           u4585 1071  
                         u5801 0460                           u5721 028F                           u5650 1B44  
                         u3890 0CB0                           u5570 1FC3                           u5490 1F4C  
                         u4930 1CBB                           u4850 1DE6                           u4770 1169  
                         u4690 10ED                           u5810 0470                           u5730 02CA  
                         u5651 1B43                           u5475 133F                           u3971 0D54  
                         u3891 0CAF                           u5571 1FC2                           u5491 1F4B  
                         u4931 1CBA                           u4851 1DE5                           u4835 1BAF  
                         u4771 1168                           u4691 10EC                           u4595 1081  
                         u5811 046F                           u5731 02C9                           u5660 1B48  
                         u3972 0D5B                           u5580 1FC9                           u4940 1CD5  
                         u4780 1170                           u5900 0640                           u5820 048B  
                         u5740 0305                           u5661 1B47                           u3981 0D70  
                         u3973 0D62                           u5581 1FC8                           u5565 1FB8  
                         u4941 1CD4                           u4781 116F                           u4765 1159  
                         u5901 063F                           u5821 048A                           u5741 0304  
                         u3982 0D77                           u5590 1FCD                           u4950 1EB8  
                         u4870 1DFA                           u5910 065B                           u5750 038E  
                         u5670 01D0                           u3991 0D9C                           u3983 0D7E  
                         u5591 1FCC                           u4951 1EB7                           u4871 1DF9  
                         u5911 065A                           u5815 046C                           u5751 038D  
                         u5671 01CF                           u3992 0DA3                           u4960 1ED4  
                         u5840 0580                           u5760 03B2                           u5680 01EA  
                         u3993 0DAA                           u4945 1CD1                           u4961 1ED3  
                         u4865 1DEB                           u5905 063C                           u5841 057F  
                         u5761 03B1                           u5681 01E9                           u4970 1EE0  
                         u4890 1E15                           u5850 058B                           u5770 03C9  
                         u5690 022E                           _OERR 00C1                           u4971 1EDF  
                         u4891 1E14                           u4795 1173                           u5851 058A  
                         u5835 054D                           u5771 03C8                           u5691 022D  
                         u5940 0787                           u5860 0597                           u5780 041F  
                         u4981 1EEF                           u4885 1DFC                           u5941 0786  
                         u5925 06E2                           u5861 0596                           u5845 057C  
                         u5781 041E                           u4990 1F08                           u4982 1EF0  
                         u5950 079F                           u5790 043A                           u4991 1F07  
                         u4983 1EF5                           u4895 1E11                           u5951 079E  
                         u5935 0748                           u5791 0439                           u5775 03C5  
                         u4984 1EF6                           u5960 07A6                           u5880 0610  
                         u4985 1EFB                           u5961 07A5                           u5881 060F  
                         u5785 041B                           u4986 1EFC                           u5970 07AE  
                         u5890 0631                           u5971 07AD                           u5891 0630  
                         u5875 05A6                           u5980 07BF                           u5981 07BE  
                         u5990 07CF                           u5991 07CE                           u5895 062D  
                         u5985 07BB                           u5995 07CB                           _SPEN 00C7  
                         _TRMT 04C1                           _TXIE 0464                           _TXEN 04C5  
                         _TXIF 0064                           _SYNC 04C4                 ??_broadcast_BT 0070  
                 __CFG_WRT$OFF 0000                           _main 008B                           btemp 007E  
                         start 0000                ___fldiv@new_exp 0025  __size_of_Initialize_Bluetooth 001A  
                 main@blt_mess 00EE                  ___fltol@sign1 0063                __end_of___fladd 1800  
                        ?_main 0070                __end_of___fldiv 136D                __end_of___awdiv 0940  
              __end_of___flneg 000F                  __CFG_WDTE$OFF 0000                __end_of___awmod 1DD6  
              __end_of___flmul 1000                __end_of___flsub 1D29                __end_of___fltol 008B  
              __end_of___lldiv 1E3C                ___awdiv@divisor 0077                __end_of___llmod 1D7D  
              __end_of___lwdiv 1C8B                __end_of___lwmod 1C47                ___awdiv@counter 0020  
                        _RCREG 001A                          _SPBRG 0099                          _PORTB 0006  
                        _TRISA 0085                          _TRISB 0086                          _TRISD 0088  
                        _TXREG 0019                __end_of_dpowers 08A0                          _scale 0940  
              __end_of_isdigit 08D7                 __CFG_BOREN$OFF 0000                          pclath 000A  
                        status 0003                          wtemp0 007E                __end_of_sprintf 07FC  
              __initialization 07FC                   __end_of_main 01C2               __end_of_Init_ADC 1B64  
             __end_of_Pin_Init 1B9B                   ?_BT_get_char 0070                         ??_main 00CB  
         __size_of__tdiv_to_l_ 00BD               ___llmod@dividend 0074                         ?_scale 0047  
                       _ADRESH 001E                         _ADRESL 009E               ___awdiv@dividend 0079  
               _BT_load_string 1BC0                         _TRISC6 043E                         _TRISC7 043F  
             __end_of___xxtofl 2000                 __CFG_PWRTE$OFF 0000               __end_of__powers_ 0844  
                       ___flge 1EA4                         ___fleq 1C8B                      ??___fladd 0063  
                       ___wmul 1B9B                      ??___fldiv 0078                      ??___awdiv 007B  
                    ??___flneg 0074                      ??___awmod 0074                      ??___flmul 0035  
                    ??___flsub 007E                      ??___fltol 005E                      ??___lldiv 0078  
                    ??___llmod 0078                      ??___lwdiv 007A               __end_of_read_ADC 1EA4  
                    ??___lwmod 0074                  main@send_mode 00E6                         _fround 136D  
             ___awdiv@quotient 0022                ___awmod@divisor 0070                ___awmod@counter 0075  
         __end_of_broadcast_BT 100F                      ??_isdigit 0070             __size_of__Umul8_16 0027  
                    ??_sprintf 00AD         __end_of_BT_load_string 1BE6                     ___flge@ff1 0070  
                   ___flge@ff2 0074                   ___xxtofl@arg 007A                   ___xxtofl@exp 0079  
                 ___xxtofl@val 0070                     ___fleq@ff1 0070                     ___fleq@ff2 0074  
      __end_of__initialization 07FC                     ___flneg@f1 0070                     ___fltol@f1 005A  
               __pcstackCOMMON 0070                  __end_of_scale 0C9F                     __div_to_l_ 10CC  
              __div_to_l_@exp1 0025                __div_to_l_@cntr 0024                        ??_scale 004B  
              __div_to_l_@quot 0020                ?_BT_load_string 0071                      ?_Init_ADC 0070  
                 read_ADC@data 004D                      ?_Pin_Init 0070                  ?_BT_load_char 0070  
                __div_to_l_@f1 0070                  __div_to_l_@f2 0074              __end_of__Umul8_16 1C0D  
                   __pmaintext 008B                        ?___flge 0070                        ?___fleq 0070  
                      ?___wmul 0070                        ?_fround 0047   __end_of_Initialize_Bluetooth 1B7E  
         __size_of_BT_get_char 0014                      ?___xxtofl 0070                     __stringtab 0800  
                   ??_Init_ADC 0070                      ?_read_ADC 0047                 ??_BT_load_char 0070  
                   ??_Pin_Init 0070              __end_of__npowers_ 0878          __size_of_broadcast_BT 0005  
              __size_of___flge 00A2                __size_of___fleq 004E                        ___fladd 1578  
                      ___fldiv 118A                        ___awdiv 08D7                        ___flneg 0004  
                      ___awmod 1D7D                        ___flmul 0C9F                        ___flsub 1CD9  
                      ___fltol 000F                        ___lldiv 1DD6                __size_of___wmul 0025  
                      ___llmod 1D29                        ___lwdiv 1C47                     _fround$915 0056  
                   _fround$916 0052                        ___lwmod 1C0D                __size_of_fround 020B  
                      __ptext1 01C2                        __ptext2 0940                        __ptext3 1D7D  
                      __ptext4 08D7                        __ptext5 08C5                        __ptext6 136D  
                      __ptext7 1C0D                        __ptext8 1C47                        __ptext9 100F  
                  ?__div_to_l_ 0070                        _dpowers 0878                        _isdigit 08C5  
                   ??___xxtofl 0074               ___awmod@dividend 0072                        _sprintf 01C2  
         end_of_initialization 07FC                     ??_read_ADC 004B                   _broadcast_BT 100A  
              ___lldiv@divisor 0070                ___lldiv@counter 007D                 __tdiv_to_l_@f1 0070  
               __tdiv_to_l_@f2 0074                  ??__tdiv_to_l_ 0078                    ___fladd@grs 006E  
                ___xxtofl@sign 0078               BT_load_char@byte 0070                    ___fldiv@grs 0027  
                  ___fldiv@rem 0020                    ___flmul@grs 003B            __size_of__div_to_l_ 00BE  
         _Initialize_Bluetooth 1B64                 __end_of___flge 1F46                 __end_of___fleq 1CD9  
               __end_of___wmul 1BC0                 __end_of_fround 1578           __end_of_BT_load_char 1B38  
             ??_BT_load_string 0073            start_initialization 07FC            __end_of__tdiv_to_l_ 10CC  
              ___llmod@divisor 0070              __size_of_Init_ADC 0018                ___llmod@counter 0079  
        ?_Initialize_Bluetooth 0070              __size_of_Pin_Init 001D                       ??___flge 0078  
                     ??___fleq 0078                       ??___wmul 0074                      __Umul8_16 1BE6  
                     ??_fround 004B                  sprintf@tmpval 00BF                      ___fladd@a 005F  
                    ___fladd@b 005B                     fround@prec 005A                      ___fldiv@a 0070  
                    ___fldiv@b 0074                      ___flmul@a 0031                      ___flmul@b 002D  
                    ___flsub@a 00A0                      ___flsub@b 00A4                      ___latbits 0002  
                __pcstackBANK0 0020                  __pcstackBANK1 00A0              __size_of___xxtofl 00BA  
                  sprintf@flag 00B7                    sprintf@eexp 00BD                    sprintf@fval 00C6  
                  sprintf@prec 00C4              __size_of_read_ADC 0068               ___lwdiv@dividend 0078  
                     ?___fladd 005B                       ?___fldiv 0070                       ?___awdiv 0077  
                     ?___flneg 0070                       ?___awmod 0070                       ?___flmul 002D  
                     ?___flsub 00A0                       ?___fltol 005A                       ?___lldiv 0070  
                     ?___llmod 0070                      __npowers_ 0844                     ?__Umul8_16 0070  
                     ?___lwdiv 0076                       ?___lwmod 0070                  ??_BT_get_char 0070  
                    __pstrings 0800                    __tdiv_to_l_ 100F                   ??__div_to_l_ 0078  
                     ?_isdigit 0070                      _scale$917 0055               ___lwdiv@quotient 007B  
                     ?_sprintf 00A8                 __size_of_scale 035F                 ___wmul@product 0074  
       ??_Initialize_Bluetooth 0070             __end_of__div_to_l_ 118A          __size_of_BT_load_char 0012  
                   _ADCON0bits 001F                    __stringbase 080F                     _ADCON1bits 009F  
            ___wmul@multiplier 0070            __end_of_BT_get_char 1B4C                       _Init_ADC 1B4C  
                     _Pin_Init 1B7E                   _BT_load_char 1B26                    ??__Umul8_16 0072  
             __size_of___fladd 0288               __size_of___fldiv 01E3               __size_of___awdiv 0069  
             __size_of___flneg 000B               __size_of___awmod 0059               __size_of___flmul 0361  
             __size_of___flsub 0050               __size_of___fltol 007C               __size_of___lldiv 0066  
             __size_of___llmod 0054               __size_of___lwdiv 0044               __size_of___lwmod 003A  
           __end_of__stringtab 0810                    _isdigit$737 0070                     sprintf@val 00B9  
                     ___xxtofl 1F46               __size_of_isdigit 0012                ___lwdiv@divisor 0076  
              ___lwdiv@counter 007D                       __ptext10 10CC                       __ptext11 1B9B  
                     __ptext20 1E3C                       __ptext12 1D29                       __ptext21 1F46  
                     __ptext13 1DD6                       __ptext30 1B26                       __ptext22 0C9F  
                     __ptext14 000F                       __ptext31 1B38                       __ptext23 1BE6  
                     __ptext15 1CD9                       __ptext24 118A                       __ptext16 1578  
                     __ptext25 100A                       __ptext17 0004                       __ptext26 1B7E  
                     __ptext18 1EA4                       __ptext27 1B64                       __ptext19 1C8B  
                     __ptext28 1B4C                       __ptext29 1BC0                       __powers_ 0810  
             __size_of_sprintf 063A                       _read_ADC 1E3C                  __size_of_main 0137  
                     main@data 00E8                       main@mess 00CE                       main@time 00EC  
                  _BT_get_char 1B38           BT_load_string@string 0071                       isdigit@c 0071  
                     scale@scl 0059                      sprintf@ap 00B6               __tdiv_to_l_@exp1 0025  
             __tdiv_to_l_@cntr 0024                      sprintf@sp 00C3               __tdiv_to_l_@quot 0020  
             ___lwmod@dividend 0072               ___lldiv@dividend 0074                      stringcode 080A  
                 ?__tdiv_to_l_ 0070         __Umul8_16@multiplicand 0070                       sprintf@c 00CA  
                     sprintf@f 00A8               ___lldiv@quotient 0079                ___lwmod@divisor 0070  
              ___lwmod@counter 0075                       stringdir 080A                       stringtab 0800  
                 main@LED_mode 00E4                  ___fladd@signs 006B        __size_of_BT_load_string 0026  
                 ___fladd@aexp 006C                   ___fladd@bexp 006D                  ?_broadcast_BT 0070  
         __Umul8_16@multiplier 0078              __Umul8_16@product 0074  
